ARM GAS  C:\Users\tmj32\AppData\Local\Temp\ccCls0pi.s 			page 1


   1              		.syntax unified
   2              		.cpu cortex-m3
   3              		.fpu softvfp
   4              		.eabi_attribute 20, 1
   5              		.eabi_attribute 21, 1
   6              		.eabi_attribute 23, 3
   7              		.eabi_attribute 24, 1
   8              		.eabi_attribute 25, 1
   9              		.eabi_attribute 26, 1
  10              		.eabi_attribute 30, 1
  11              		.eabi_attribute 34, 1
  12              		.eabi_attribute 18, 4
  13              		.thumb
  14              		.syntax unified
  15              		.file	"Driver3_PM.c"
  16              		.text
  17              	.Ltext0:
  18              		.cfi_sections	.debug_frame
  19              		.section	.text.Driver3_Sleep,"ax",%progbits
  20              		.align	2
  21              		.global	Driver3_Sleep
  22              		.thumb
  23              		.thumb_func
  24              		.type	Driver3_Sleep, %function
  25              	Driver3_Sleep:
  26              	.LFB0:
  27              		.file 1 "Generated_Source\\PSoC5\\Driver3_PM.c"
   1:Generated_Source\PSoC5/Driver3_PM.c **** /*******************************************************************************
   2:Generated_Source\PSoC5/Driver3_PM.c **** * File Name: Driver3_PM.c
   3:Generated_Source\PSoC5/Driver3_PM.c **** * Version 1.10
   4:Generated_Source\PSoC5/Driver3_PM.c **** *
   5:Generated_Source\PSoC5/Driver3_PM.c **** * Description:
   6:Generated_Source\PSoC5/Driver3_PM.c **** *  This file provides the power management source code to API for the
   7:Generated_Source\PSoC5/Driver3_PM.c **** *  LED_Driver component.
   8:Generated_Source\PSoC5/Driver3_PM.c **** *
   9:Generated_Source\PSoC5/Driver3_PM.c **** * Note:
  10:Generated_Source\PSoC5/Driver3_PM.c **** *  None
  11:Generated_Source\PSoC5/Driver3_PM.c **** *
  12:Generated_Source\PSoC5/Driver3_PM.c **** *******************************************************************************
  13:Generated_Source\PSoC5/Driver3_PM.c **** * Copyright 2013-2015, Cypress Semiconductor Corporation.  All rights reserved.
  14:Generated_Source\PSoC5/Driver3_PM.c **** * You may use this file only in accordance with the license, terms, conditions,
  15:Generated_Source\PSoC5/Driver3_PM.c **** * disclaimers, and limitations in the end user license agreement accompanying
  16:Generated_Source\PSoC5/Driver3_PM.c **** * the software package with which this file was provided.
  17:Generated_Source\PSoC5/Driver3_PM.c **** ********************************************************************************/
  18:Generated_Source\PSoC5/Driver3_PM.c **** 
  19:Generated_Source\PSoC5/Driver3_PM.c **** #include "Driver3.h"
  20:Generated_Source\PSoC5/Driver3_PM.c **** static Driver3_backupStruct Driver3_backup;
  21:Generated_Source\PSoC5/Driver3_PM.c **** 
  22:Generated_Source\PSoC5/Driver3_PM.c **** 
  23:Generated_Source\PSoC5/Driver3_PM.c **** /*******************************************************************************
  24:Generated_Source\PSoC5/Driver3_PM.c **** * Function Name: Driver3_Sleep
  25:Generated_Source\PSoC5/Driver3_PM.c **** ********************************************************************************
  26:Generated_Source\PSoC5/Driver3_PM.c **** *
  27:Generated_Source\PSoC5/Driver3_PM.c **** * Summary:
  28:Generated_Source\PSoC5/Driver3_PM.c **** *  Stop and Save the user configuration
  29:Generated_Source\PSoC5/Driver3_PM.c **** *
  30:Generated_Source\PSoC5/Driver3_PM.c **** * Parameters:
ARM GAS  C:\Users\tmj32\AppData\Local\Temp\ccCls0pi.s 			page 2


  31:Generated_Source\PSoC5/Driver3_PM.c **** *  None
  32:Generated_Source\PSoC5/Driver3_PM.c **** *
  33:Generated_Source\PSoC5/Driver3_PM.c **** * Return:
  34:Generated_Source\PSoC5/Driver3_PM.c **** *  None
  35:Generated_Source\PSoC5/Driver3_PM.c **** *
  36:Generated_Source\PSoC5/Driver3_PM.c **** *******************************************************************************/
  37:Generated_Source\PSoC5/Driver3_PM.c **** void Driver3_Sleep(void) 
  38:Generated_Source\PSoC5/Driver3_PM.c **** {
  28              		.loc 1 38 0
  29              		.cfi_startproc
  30              		@ args = 0, pretend = 0, frame = 0
  31              		@ frame_needed = 0, uses_anonymous_args = 0
  32 0000 08B5     		push	{r3, lr}
  33              		.cfi_def_cfa_offset 8
  34              		.cfi_offset 3, -8
  35              		.cfi_offset 14, -4
  39:Generated_Source\PSoC5/Driver3_PM.c ****     uint8 i;
  40:Generated_Source\PSoC5/Driver3_PM.c ****     
  41:Generated_Source\PSoC5/Driver3_PM.c ****     /* Store the component enable state */
  42:Generated_Source\PSoC5/Driver3_PM.c ****     Driver3_backup.ledEnableState = Driver3_enableVar;
  36              		.loc 1 42 0
  37 0002 094B     		ldr	r3, .L5
  38 0004 1A78     		ldrb	r2, [r3]	@ zero_extendqisi2
  39 0006 094B     		ldr	r3, .L5+4
  40 0008 1A70     		strb	r2, [r3]
  41              	.LVL0:
  43:Generated_Source\PSoC5/Driver3_PM.c ****     
  44:Generated_Source\PSoC5/Driver3_PM.c ****     /* Save the segment buffers */
  45:Generated_Source\PSoC5/Driver3_PM.c ****     for(i = 0u; i < Driver3_NUM_COM; i++)
  42              		.loc 1 45 0
  43 000a 0023     		movs	r3, #0
  44 000c 06E0     		b	.L2
  45              	.LVL1:
  46              	.L3:
  46:Generated_Source\PSoC5/Driver3_PM.c ****     {
  47:Generated_Source\PSoC5/Driver3_PM.c ****         Driver3_backup.segLBackup[i] = Driver3_segLBuffer[i];
  47              		.loc 1 47 0 discriminator 3
  48 000e 084A     		ldr	r2, .L5+8
  49 0010 D15C     		ldrb	r1, [r2, r3]	@ zero_extendqisi2
  50 0012 064A     		ldr	r2, .L5+4
  51 0014 1A44     		add	r2, r2, r3
  52 0016 5170     		strb	r1, [r2, #1]
  45:Generated_Source\PSoC5/Driver3_PM.c ****     {
  53              		.loc 1 45 0 discriminator 3
  54 0018 0133     		adds	r3, r3, #1
  55              	.LVL2:
  56 001a DBB2     		uxtb	r3, r3
  57              	.LVL3:
  58              	.L2:
  45:Generated_Source\PSoC5/Driver3_PM.c ****     {
  59              		.loc 1 45 0 is_stmt 0 discriminator 1
  60 001c 032B     		cmp	r3, #3
  61 001e F6D9     		bls	.L3
  48:Generated_Source\PSoC5/Driver3_PM.c ****         #if (Driver3_NUM_SEG > 8u) 
  49:Generated_Source\PSoC5/Driver3_PM.c ****             Driver3_backup.segMBackup[i] = Driver3_segMBuffer[i];
  50:Generated_Source\PSoC5/Driver3_PM.c ****         #endif /* (Driver3_NUM_SEG > 8u) */
  51:Generated_Source\PSoC5/Driver3_PM.c ****         #if (Driver3_NUM_SEG > 16u) 
ARM GAS  C:\Users\tmj32\AppData\Local\Temp\ccCls0pi.s 			page 3


  52:Generated_Source\PSoC5/Driver3_PM.c ****             Driver3_backup.segHBackup[i] = Driver3_segHBuffer[i];
  53:Generated_Source\PSoC5/Driver3_PM.c ****         #endif /* (Driver3_NUM_SEG > 16u) */
  54:Generated_Source\PSoC5/Driver3_PM.c ****     }
  55:Generated_Source\PSoC5/Driver3_PM.c ****     
  56:Generated_Source\PSoC5/Driver3_PM.c ****     Driver3_Stop();
  62              		.loc 1 56 0 is_stmt 1
  63 0020 FFF7FEFF 		bl	Driver3_Stop
  64              	.LVL4:
  65 0024 08BD     		pop	{r3, pc}
  66              	.L6:
  67 0026 00BF     		.align	2
  68              	.L5:
  69 0028 00000000 		.word	Driver3_enableVar
  70 002c 00000000 		.word	.LANCHOR0
  71 0030 00000000 		.word	Driver3_segLBuffer
  72              		.cfi_endproc
  73              	.LFE0:
  74              		.size	Driver3_Sleep, .-Driver3_Sleep
  75              		.section	.text.Driver3_Wakeup,"ax",%progbits
  76              		.align	2
  77              		.global	Driver3_Wakeup
  78              		.thumb
  79              		.thumb_func
  80              		.type	Driver3_Wakeup, %function
  81              	Driver3_Wakeup:
  82              	.LFB1:
  57:Generated_Source\PSoC5/Driver3_PM.c **** }
  58:Generated_Source\PSoC5/Driver3_PM.c **** 
  59:Generated_Source\PSoC5/Driver3_PM.c **** 
  60:Generated_Source\PSoC5/Driver3_PM.c **** /*******************************************************************************
  61:Generated_Source\PSoC5/Driver3_PM.c **** * Function Name: Driver3_Wakeup
  62:Generated_Source\PSoC5/Driver3_PM.c **** ********************************************************************************
  63:Generated_Source\PSoC5/Driver3_PM.c **** *
  64:Generated_Source\PSoC5/Driver3_PM.c **** * Summary:
  65:Generated_Source\PSoC5/Driver3_PM.c **** *  Restores and enables the user configuration
  66:Generated_Source\PSoC5/Driver3_PM.c **** *
  67:Generated_Source\PSoC5/Driver3_PM.c **** * Parameters:
  68:Generated_Source\PSoC5/Driver3_PM.c **** *  None
  69:Generated_Source\PSoC5/Driver3_PM.c **** *
  70:Generated_Source\PSoC5/Driver3_PM.c **** * Return:
  71:Generated_Source\PSoC5/Driver3_PM.c **** *  None
  72:Generated_Source\PSoC5/Driver3_PM.c **** *
  73:Generated_Source\PSoC5/Driver3_PM.c **** *******************************************************************************/
  74:Generated_Source\PSoC5/Driver3_PM.c **** void Driver3_Wakeup(void) 
  75:Generated_Source\PSoC5/Driver3_PM.c **** {
  83              		.loc 1 75 0
  84              		.cfi_startproc
  85              		@ args = 0, pretend = 0, frame = 0
  86              		@ frame_needed = 0, uses_anonymous_args = 0
  87 0000 08B5     		push	{r3, lr}
  88              		.cfi_def_cfa_offset 8
  89              		.cfi_offset 3, -8
  90              		.cfi_offset 14, -4
  91              	.LVL5:
  76:Generated_Source\PSoC5/Driver3_PM.c ****     uint8 i;
  77:Generated_Source\PSoC5/Driver3_PM.c ****     
  78:Generated_Source\PSoC5/Driver3_PM.c ****     /* Restore the segment buffers */
ARM GAS  C:\Users\tmj32\AppData\Local\Temp\ccCls0pi.s 			page 4


  79:Generated_Source\PSoC5/Driver3_PM.c ****     for(i = 0u; i < Driver3_NUM_COM; i++)
  92              		.loc 1 79 0
  93 0002 0023     		movs	r3, #0
  94 0004 06E0     		b	.L8
  95              	.LVL6:
  96              	.L9:
  80:Generated_Source\PSoC5/Driver3_PM.c ****     {
  81:Generated_Source\PSoC5/Driver3_PM.c ****         Driver3_segLBuffer[i] = Driver3_backup.segLBackup[i];
  97              		.loc 1 81 0 discriminator 3
  98 0006 084A     		ldr	r2, .L12
  99 0008 1A44     		add	r2, r2, r3
 100 000a 5178     		ldrb	r1, [r2, #1]	@ zero_extendqisi2
 101 000c 074A     		ldr	r2, .L12+4
 102 000e D154     		strb	r1, [r2, r3]
  79:Generated_Source\PSoC5/Driver3_PM.c ****     {
 103              		.loc 1 79 0 discriminator 3
 104 0010 0133     		adds	r3, r3, #1
 105              	.LVL7:
 106 0012 DBB2     		uxtb	r3, r3
 107              	.LVL8:
 108              	.L8:
  79:Generated_Source\PSoC5/Driver3_PM.c ****     {
 109              		.loc 1 79 0 is_stmt 0 discriminator 1
 110 0014 032B     		cmp	r3, #3
 111 0016 F6D9     		bls	.L9
  82:Generated_Source\PSoC5/Driver3_PM.c ****         #if (Driver3_NUM_SEG > 8u) 
  83:Generated_Source\PSoC5/Driver3_PM.c ****             Driver3_segMBuffer[i] = Driver3_backup.segMBackup[i];
  84:Generated_Source\PSoC5/Driver3_PM.c ****         #endif /* (Driver3_NUM_SEG > 8u) */
  85:Generated_Source\PSoC5/Driver3_PM.c ****         #if (Driver3_NUM_SEG > 16u) 
  86:Generated_Source\PSoC5/Driver3_PM.c ****             Driver3_segHBuffer[i] = Driver3_backup.segHBackup[i];
  87:Generated_Source\PSoC5/Driver3_PM.c ****         #endif /* (Driver3_NUM_SEG > 16u) */
  88:Generated_Source\PSoC5/Driver3_PM.c ****     }
  89:Generated_Source\PSoC5/Driver3_PM.c ****     
  90:Generated_Source\PSoC5/Driver3_PM.c ****     if(Driver3_backup.ledEnableState == Driver3_ENABLED)
 112              		.loc 1 90 0 is_stmt 1
 113 0018 034B     		ldr	r3, .L12
 114              	.LVL9:
 115 001a 1B78     		ldrb	r3, [r3]	@ zero_extendqisi2
 116 001c 012B     		cmp	r3, #1
 117 001e 01D1     		bne	.L7
  91:Generated_Source\PSoC5/Driver3_PM.c ****     {
  92:Generated_Source\PSoC5/Driver3_PM.c ****         /* Enable the component */
  93:Generated_Source\PSoC5/Driver3_PM.c ****         Driver3_Enable();
 118              		.loc 1 93 0
 119 0020 FFF7FEFF 		bl	Driver3_Enable
 120              	.LVL10:
 121              	.L7:
 122 0024 08BD     		pop	{r3, pc}
 123              	.L13:
 124 0026 00BF     		.align	2
 125              	.L12:
 126 0028 00000000 		.word	.LANCHOR0
 127 002c 00000000 		.word	Driver3_segLBuffer
 128              		.cfi_endproc
 129              	.LFE1:
 130              		.size	Driver3_Wakeup, .-Driver3_Wakeup
 131              		.bss
ARM GAS  C:\Users\tmj32\AppData\Local\Temp\ccCls0pi.s 			page 5


 132              		.align	2
 133              		.set	.LANCHOR0,. + 0
 134              		.type	Driver3_backup, %object
 135              		.size	Driver3_backup, 5
 136              	Driver3_backup:
 137 0000 00000000 		.space	5
 137      00
 138              		.text
 139              	.Letext0:
 140              		.file 2 "Generated_Source\\PSoC5\\Driver3.h"
 141              		.file 3 "Generated_Source\\PSoC5/cytypes.h"