ARM GAS  C:\Users\tmj32\AppData\Local\Temp\cchH8kkE.s 			page 1


   1              		.syntax unified
   2              		.cpu cortex-m3
   3              		.fpu softvfp
   4              		.eabi_attribute 20, 1
   5              		.eabi_attribute 21, 1
   6              		.eabi_attribute 23, 3
   7              		.eabi_attribute 24, 1
   8              		.eabi_attribute 25, 1
   9              		.eabi_attribute 26, 1
  10              		.eabi_attribute 30, 1
  11              		.eabi_attribute 34, 1
  12              		.eabi_attribute 18, 4
  13              		.thumb
  14              		.syntax unified
  15              		.file	"Driver3.c"
  16              		.text
  17              	.Ltext0:
  18              		.cfi_sections	.debug_frame
  19              		.section	.text.Driver3_DmaInit,"ax",%progbits
  20              		.align	2
  21              		.thumb
  22              		.thumb_func
  23              		.type	Driver3_DmaInit, %function
  24              	Driver3_DmaInit:
  25              	.LFB0:
  26              		.file 1 "Generated_Source\\PSoC5\\Driver3.c"
   1:Generated_Source\PSoC5/Driver3.c **** /*******************************************************************************
   2:Generated_Source\PSoC5/Driver3.c **** * File Name: Driver3.c
   3:Generated_Source\PSoC5/Driver3.c **** * Version 1.10
   4:Generated_Source\PSoC5/Driver3.c **** *
   5:Generated_Source\PSoC5/Driver3.c **** * Description:
   6:Generated_Source\PSoC5/Driver3.c **** *  This file contains the setup, control and status commands for the 
   7:Generated_Source\PSoC5/Driver3.c **** *  LED Driver component.
   8:Generated_Source\PSoC5/Driver3.c **** *
   9:Generated_Source\PSoC5/Driver3.c **** * Note:
  10:Generated_Source\PSoC5/Driver3.c **** *  None
  11:Generated_Source\PSoC5/Driver3.c **** *
  12:Generated_Source\PSoC5/Driver3.c **** ********************************************************************************
  13:Generated_Source\PSoC5/Driver3.c **** * Copyright 2013-2015, Cypress Semiconductor Corporation.  All rights reserved.
  14:Generated_Source\PSoC5/Driver3.c **** * You may use this file only in accordance with the license, terms, conditions,
  15:Generated_Source\PSoC5/Driver3.c **** * disclaimers, and limitations in the end user license agreement accompanying
  16:Generated_Source\PSoC5/Driver3.c **** * the software package with which this file was provided.
  17:Generated_Source\PSoC5/Driver3.c **** ********************************************************************************/
  18:Generated_Source\PSoC5/Driver3.c **** 
  19:Generated_Source\PSoC5/Driver3.c **** #include "Driver3.h"
  20:Generated_Source\PSoC5/Driver3.c **** #include <Driver3_DMA_Com_dma.h>
  21:Generated_Source\PSoC5/Driver3.c **** #include <Driver3_DMA_Seg_dma.h>
  22:Generated_Source\PSoC5/Driver3.c **** #if (Driver3_BRIGHTNESS_EN == Driver3_ENABLED)
  23:Generated_Source\PSoC5/Driver3.c ****     #include <Driver3_DMA_BC_dma.h>
  24:Generated_Source\PSoC5/Driver3.c **** #endif /* (Driver3_BRIGHTNESS_EN == Driver3_ENABLED) */
  25:Generated_Source\PSoC5/Driver3.c **** 
  26:Generated_Source\PSoC5/Driver3.c **** /* Function prototypes */
  27:Generated_Source\PSoC5/Driver3.c **** static void Driver3_DmaInit(void) ;
  28:Generated_Source\PSoC5/Driver3.c **** static void Driver3_DmaEnable(void) ;
  29:Generated_Source\PSoC5/Driver3.c **** static void Driver3_DmaDisable(void) ;
  30:Generated_Source\PSoC5/Driver3.c **** 
  31:Generated_Source\PSoC5/Driver3.c **** /* Used to hold the common line output sequence */
ARM GAS  C:\Users\tmj32\AppData\Local\Temp\cchH8kkE.s 			page 2


  32:Generated_Source\PSoC5/Driver3.c **** #if(Driver3_COM_DRIVE == Driver3_HIGH)
  33:Generated_Source\PSoC5/Driver3.c ****     static uint8 Driver3_comBuffer[16] = {0x00u, 0x01u, 0x00u, 0x02u, 0x00u, 0x04u, 0x00u, 0x08u,
  34:Generated_Source\PSoC5/Driver3.c ****                                                     0x00u, 0x10u, 0x00u, 0x20u, 0x00u, 0x40u, 0x00u
  35:Generated_Source\PSoC5/Driver3.c **** #else
  36:Generated_Source\PSoC5/Driver3.c ****     static uint8 Driver3_comBuffer[16] = {0xFFu, 0xFEu, 0xFFu, 0xFDu, 0xFFu, 0xFBu, 0xFFu, 0xF7u,
  37:Generated_Source\PSoC5/Driver3.c ****                                                     0xFFu, 0xEFu, 0xFFu, 0xDFu, 0xFFu, 0xBFu, 0xFFu
  38:Generated_Source\PSoC5/Driver3.c **** #endif /* (Driver3_COM_DRIVE == Driver3_HIGH) */
  39:Generated_Source\PSoC5/Driver3.c **** 
  40:Generated_Source\PSoC5/Driver3.c **** /* Buffers used to hold the display(segment) values to be transferred to the control registers */
  41:Generated_Source\PSoC5/Driver3.c **** uint8 Driver3_segLBuffer[Driver3_NUM_COM];
  42:Generated_Source\PSoC5/Driver3.c **** #if (Driver3_NUM_SEG > 8u) 
  43:Generated_Source\PSoC5/Driver3.c ****     uint8 Driver3_segMBuffer[Driver3_NUM_COM];
  44:Generated_Source\PSoC5/Driver3.c **** #endif /* (Driver3_NUM_SEG > 8u) */
  45:Generated_Source\PSoC5/Driver3.c **** #if (Driver3_NUM_SEG > 16u) 
  46:Generated_Source\PSoC5/Driver3.c ****     uint8 Driver3_segHBuffer[Driver3_NUM_COM];
  47:Generated_Source\PSoC5/Driver3.c **** #endif /* (Driver3_NUM_SEG > 16u) */
  48:Generated_Source\PSoC5/Driver3.c **** 
  49:Generated_Source\PSoC5/Driver3.c **** #if (Driver3_BRIGHTNESS_EN == Driver3_ENABLED)
  50:Generated_Source\PSoC5/Driver3.c ****     /* The brightness register used to hold the brightness levels for each common */
  51:Generated_Source\PSoC5/Driver3.c ****     static uint8 Driver3_brightnessReg[Driver3_NUM_COM];
  52:Generated_Source\PSoC5/Driver3.c **** #endif /* (Driver3_BRIGHTNESS_EN == Driver3_ENABLED) */
  53:Generated_Source\PSoC5/Driver3.c **** 
  54:Generated_Source\PSoC5/Driver3.c **** /* DMA channel and TD declaractions */
  55:Generated_Source\PSoC5/Driver3.c **** static uint8 Driver3_dmaComChannel;
  56:Generated_Source\PSoC5/Driver3.c **** static uint8 Driver3_dmaComTd[Driver3_TWO_NUM_COM];
  57:Generated_Source\PSoC5/Driver3.c **** 
  58:Generated_Source\PSoC5/Driver3.c **** static uint8 Driver3_dmaSegChannel;
  59:Generated_Source\PSoC5/Driver3.c **** static uint8 Driver3_dmaSegLTd[Driver3_NUM_COM];
  60:Generated_Source\PSoC5/Driver3.c **** 
  61:Generated_Source\PSoC5/Driver3.c **** #if (Driver3_BRIGHTNESS_EN == Driver3_ENABLED)
  62:Generated_Source\PSoC5/Driver3.c ****     static uint8 Driver3_dmaBCChannel;
  63:Generated_Source\PSoC5/Driver3.c ****     static uint8 Driver3_dmaBCTd;
  64:Generated_Source\PSoC5/Driver3.c **** #endif /* (Driver3_BRIGHTNESS_EN == Driver3_ENABLED) */
  65:Generated_Source\PSoC5/Driver3.c **** 
  66:Generated_Source\PSoC5/Driver3.c **** uint8 Driver3_initVar = 0u;
  67:Generated_Source\PSoC5/Driver3.c **** uint8 Driver3_enableVar = 0u;
  68:Generated_Source\PSoC5/Driver3.c **** 
  69:Generated_Source\PSoC5/Driver3.c **** 
  70:Generated_Source\PSoC5/Driver3.c **** /*******************************************************************************
  71:Generated_Source\PSoC5/Driver3.c **** * Function Name: Driver3_DmaInit
  72:Generated_Source\PSoC5/Driver3.c **** ********************************************************************************
  73:Generated_Source\PSoC5/Driver3.c **** *
  74:Generated_Source\PSoC5/Driver3.c **** * Summary: 
  75:Generated_Source\PSoC5/Driver3.c **** *  Initializes the DMAs for transferring from the buffer register arrays to 
  76:Generated_Source\PSoC5/Driver3.c **** *  the control registers.
  77:Generated_Source\PSoC5/Driver3.c **** *
  78:Generated_Source\PSoC5/Driver3.c **** * Parameters:
  79:Generated_Source\PSoC5/Driver3.c **** *  None
  80:Generated_Source\PSoC5/Driver3.c **** *
  81:Generated_Source\PSoC5/Driver3.c **** * Return:
  82:Generated_Source\PSoC5/Driver3.c **** *  None
  83:Generated_Source\PSoC5/Driver3.c **** *
  84:Generated_Source\PSoC5/Driver3.c **** * Side Effects: 
  85:Generated_Source\PSoC5/Driver3.c **** *  None
  86:Generated_Source\PSoC5/Driver3.c **** *
  87:Generated_Source\PSoC5/Driver3.c **** *******************************************************************************/
  88:Generated_Source\PSoC5/Driver3.c **** static void Driver3_DmaInit(void) 
ARM GAS  C:\Users\tmj32\AppData\Local\Temp\cchH8kkE.s 			page 3


  89:Generated_Source\PSoC5/Driver3.c **** {
  27              		.loc 1 89 0
  28              		.cfi_startproc
  29              		@ args = 0, pretend = 0, frame = 0
  30              		@ frame_needed = 0, uses_anonymous_args = 0
  31 0000 10B5     		push	{r4, lr}
  32              		.cfi_def_cfa_offset 8
  33              		.cfi_offset 4, -8
  34              		.cfi_offset 14, -4
  90:Generated_Source\PSoC5/Driver3.c ****     uint8  i;
  91:Generated_Source\PSoC5/Driver3.c ****     
  92:Generated_Source\PSoC5/Driver3.c ****     /* Segment TDs for Seg_Driver_M and Seg_Driver_H control registers */
  93:Generated_Source\PSoC5/Driver3.c ****     #if (Driver3_NUM_SEG > 8u)
  94:Generated_Source\PSoC5/Driver3.c ****         static uint8 Driver3_dmaSegMTd[Driver3_NUM_COM];
  95:Generated_Source\PSoC5/Driver3.c ****     #endif /* (Driver3_NUM_SEG > 8u) */
  96:Generated_Source\PSoC5/Driver3.c ****     #if (Driver3_NUM_SEG > 16u)
  97:Generated_Source\PSoC5/Driver3.c ****         static uint8 Driver3_dmaSegHTd[Driver3_NUM_COM];
  98:Generated_Source\PSoC5/Driver3.c ****     #endif /* (Driver3_NUM_SEG > 16u) */
  99:Generated_Source\PSoC5/Driver3.c **** 
 100:Generated_Source\PSoC5/Driver3.c ****     /************************* DMA configuration for the Commons *************************/
 101:Generated_Source\PSoC5/Driver3.c ****     /* Common DMA channel */
 102:Generated_Source\PSoC5/Driver3.c ****     Driver3_dmaComChannel = Driver3_DMA_Com_DmaInitialize(1u, 1u, 
  35              		.loc 1 102 0
  36 0002 4FF48043 		mov	r3, #16384
  37 0006 41F6FF72 		movw	r2, #8191
  38 000a 0121     		movs	r1, #1
  39 000c 0846     		mov	r0, r1
  40 000e FFF7FEFF 		bl	Driver3_DMA_Com_DmaInitialize
  41              	.LVL0:
  42 0012 424B     		ldr	r3, .L21
  43 0014 1870     		strb	r0, [r3]
 103:Generated_Source\PSoC5/Driver3.c ****                                         HI16(Driver3_SRAM_BASE), HI16(Driver3_CONTROL_REG_BASE));
 104:Generated_Source\PSoC5/Driver3.c **** 
 105:Generated_Source\PSoC5/Driver3.c ****     /* Check if the channel is valid */                                                            
 106:Generated_Source\PSoC5/Driver3.c ****     if(Driver3_dmaComChannel != DMA_INVALID_CHANNEL)
  44              		.loc 1 106 0
  45 0016 FF28     		cmp	r0, #255
  46 0018 08D1     		bne	.L18
  47 001a 3FE0     		b	.L3
  48              	.LVL1:
  49              	.L4:
 107:Generated_Source\PSoC5/Driver3.c ****     {
 108:Generated_Source\PSoC5/Driver3.c ****         /* Allocate the common TDs */
 109:Generated_Source\PSoC5/Driver3.c ****         for(i = 0u; i < Driver3_TWO_NUM_COM; i++)
 110:Generated_Source\PSoC5/Driver3.c ****         {
 111:Generated_Source\PSoC5/Driver3.c ****             Driver3_dmaComTd[i] = CyDmaTdAllocate();
  50              		.loc 1 111 0 discriminator 3
  51 001c FFF7FEFF 		bl	CyDmaTdAllocate
  52              	.LVL2:
  53 0020 3E4B     		ldr	r3, .L21
  54 0022 2344     		add	r3, r3, r4
  55 0024 1871     		strb	r0, [r3, #4]
 109:Generated_Source\PSoC5/Driver3.c ****         {
  56              		.loc 1 109 0 discriminator 3
  57 0026 0134     		adds	r4, r4, #1
  58              	.LVL3:
  59 0028 E4B2     		uxtb	r4, r4
ARM GAS  C:\Users\tmj32\AppData\Local\Temp\cchH8kkE.s 			page 4


  60              	.LVL4:
  61 002a 00E0     		b	.L2
  62              	.LVL5:
  63              	.L18:
  64 002c 0024     		movs	r4, #0
  65              	.L2:
  66              	.LVL6:
 109:Generated_Source\PSoC5/Driver3.c ****         {
  67              		.loc 1 109 0 is_stmt 0 discriminator 1
  68 002e 072C     		cmp	r4, #7
  69 0030 F4D9     		bls	.L4
  70 0032 0024     		movs	r4, #0
  71              	.LVL7:
  72 0034 19E0     		b	.L5
  73              	.LVL8:
  74              	.L8:
 112:Generated_Source\PSoC5/Driver3.c ****         }
 113:Generated_Source\PSoC5/Driver3.c ****         
 114:Generated_Source\PSoC5/Driver3.c ****         /* Set configuration for the Common TDs */
 115:Generated_Source\PSoC5/Driver3.c ****         for(i = 0u;  i < (Driver3_TWO_NUM_COM - 1u); i++)
 116:Generated_Source\PSoC5/Driver3.c ****         {
 117:Generated_Source\PSoC5/Driver3.c ****             /* Separate configurations for odd and even TDs */
 118:Generated_Source\PSoC5/Driver3.c ****             if((uint8)(i & 1u) == 0u)
  75              		.loc 1 118 0 is_stmt 1
  76 0036 14F0010F 		tst	r4, #1
  77 003a 0AD1     		bne	.L6
 119:Generated_Source\PSoC5/Driver3.c ****             {
 120:Generated_Source\PSoC5/Driver3.c ****                 /* Set configuration for the Common TDs */
 121:Generated_Source\PSoC5/Driver3.c ****                 (void) CyDmaTdSetConfiguration(Driver3_dmaComTd[i], 1u, 
  78              		.loc 1 121 0
  79 003c 374A     		ldr	r2, .L21
  80 003e 1019     		adds	r0, r2, r4
 122:Generated_Source\PSoC5/Driver3.c ****                                                 Driver3_dmaComTd[i+1u],
  81              		.loc 1 122 0
  82 0040 631C     		adds	r3, r4, #1
 121:Generated_Source\PSoC5/Driver3.c ****                                                 Driver3_dmaComTd[i+1u],
  83              		.loc 1 121 0
  84 0042 1A44     		add	r2, r2, r3
  85 0044 0523     		movs	r3, #5
  86 0046 1279     		ldrb	r2, [r2, #4]	@ zero_extendqisi2
  87 0048 0121     		movs	r1, #1
  88 004a 0079     		ldrb	r0, [r0, #4]	@ zero_extendqisi2
  89 004c FFF7FEFF 		bl	CyDmaTdSetConfiguration
  90              	.LVL9:
  91 0050 09E0     		b	.L7
  92              	.L6:
 123:Generated_Source\PSoC5/Driver3.c ****                                                 TD_INC_SRC_ADR | Driver3_DMA_Com__TD_TERMOUT_EN);
 124:Generated_Source\PSoC5/Driver3.c ****             }
 125:Generated_Source\PSoC5/Driver3.c ****             else
 126:Generated_Source\PSoC5/Driver3.c ****             {
 127:Generated_Source\PSoC5/Driver3.c ****                 /* Set configuration for the Common TDs */
 128:Generated_Source\PSoC5/Driver3.c ****                 (void) CyDmaTdSetConfiguration(Driver3_dmaComTd[i], 1u,
  93              		.loc 1 128 0
  94 0052 324A     		ldr	r2, .L21
  95 0054 1019     		adds	r0, r2, r4
 129:Generated_Source\PSoC5/Driver3.c ****                                                 Driver3_dmaComTd[i+1u], TD_INC_SRC_ADR);
  96              		.loc 1 129 0
ARM GAS  C:\Users\tmj32\AppData\Local\Temp\cchH8kkE.s 			page 5


  97 0056 631C     		adds	r3, r4, #1
 128:Generated_Source\PSoC5/Driver3.c ****                                                 Driver3_dmaComTd[i+1u], TD_INC_SRC_ADR);
  98              		.loc 1 128 0
  99 0058 1A44     		add	r2, r2, r3
 100 005a 0123     		movs	r3, #1
 101 005c 1279     		ldrb	r2, [r2, #4]	@ zero_extendqisi2
 102 005e 1946     		mov	r1, r3
 103 0060 0079     		ldrb	r0, [r0, #4]	@ zero_extendqisi2
 104 0062 FFF7FEFF 		bl	CyDmaTdSetConfiguration
 105              	.LVL10:
 106              	.L7:
 115:Generated_Source\PSoC5/Driver3.c ****         {
 107              		.loc 1 115 0 discriminator 2
 108 0066 0134     		adds	r4, r4, #1
 109              	.LVL11:
 110 0068 E4B2     		uxtb	r4, r4
 111              	.LVL12:
 112              	.L5:
 115:Generated_Source\PSoC5/Driver3.c ****         {
 113              		.loc 1 115 0 is_stmt 0 discriminator 1
 114 006a 062C     		cmp	r4, #6
 115 006c E3D9     		bls	.L8
 130:Generated_Source\PSoC5/Driver3.c ****             }
 131:Generated_Source\PSoC5/Driver3.c ****         }
 132:Generated_Source\PSoC5/Driver3.c ****         /* Set the wraparound Common TD configuration */
 133:Generated_Source\PSoC5/Driver3.c ****         (void) CyDmaTdSetConfiguration(Driver3_dmaComTd[Driver3_TWO_NUM_COM - 1u], 
 116              		.loc 1 133 0 is_stmt 1
 117 006e 2B48     		ldr	r0, .L21
 118 0070 0123     		movs	r3, #1
 119 0072 0279     		ldrb	r2, [r0, #4]	@ zero_extendqisi2
 120 0074 1946     		mov	r1, r3
 121 0076 C07A     		ldrb	r0, [r0, #11]	@ zero_extendqisi2
 122 0078 FFF7FEFF 		bl	CyDmaTdSetConfiguration
 123              	.LVL13:
 134:Generated_Source\PSoC5/Driver3.c ****                                         1u, Driver3_dmaComTd[0u], TD_INC_SRC_ADR);
 135:Generated_Source\PSoC5/Driver3.c ****         
 136:Generated_Source\PSoC5/Driver3.c ****         /* Set the lower addresses of the common TDs */
 137:Generated_Source\PSoC5/Driver3.c ****         for(i = 0u; i < Driver3_TWO_NUM_COM; i++)
 124              		.loc 1 137 0
 125 007c 0024     		movs	r4, #0
 126 007e 0BE0     		b	.L9
 127              	.LVL14:
 128              	.L10:
 138:Generated_Source\PSoC5/Driver3.c ****         {
 139:Generated_Source\PSoC5/Driver3.c ****             (void) CyDmaTdSetAddress(Driver3_dmaComTd[i],
 129              		.loc 1 139 0 discriminator 3
 130 0080 264B     		ldr	r3, .L21
 131 0082 2344     		add	r3, r3, r4
 140:Generated_Source\PSoC5/Driver3.c ****                                         LO16((uint32) &Driver3_comBuffer[i]),
 132              		.loc 1 140 0 discriminator 3
 133 0084 2649     		ldr	r1, .L21+4
 134 0086 2144     		add	r1, r1, r4
 139:Generated_Source\PSoC5/Driver3.c ****                                         LO16((uint32) &Driver3_comBuffer[i]),
 135              		.loc 1 139 0 discriminator 3
 136 0088 46F27B52 		movw	r2, #25979
 137 008c 89B2     		uxth	r1, r1
 138 008e 1879     		ldrb	r0, [r3, #4]	@ zero_extendqisi2
ARM GAS  C:\Users\tmj32\AppData\Local\Temp\cchH8kkE.s 			page 6


 139 0090 FFF7FEFF 		bl	CyDmaTdSetAddress
 140              	.LVL15:
 137:Generated_Source\PSoC5/Driver3.c ****         {
 141              		.loc 1 137 0 discriminator 3
 142 0094 0134     		adds	r4, r4, #1
 143              	.LVL16:
 144 0096 E4B2     		uxtb	r4, r4
 145              	.LVL17:
 146              	.L9:
 137:Generated_Source\PSoC5/Driver3.c ****         {
 147              		.loc 1 137 0 is_stmt 0 discriminator 1
 148 0098 072C     		cmp	r4, #7
 149 009a F1D9     		bls	.L10
 150              	.LVL18:
 151              	.L3:
 141:Generated_Source\PSoC5/Driver3.c ****                                         LO16((uint32) Driver3_COM_CONTROL_PTR));
 142:Generated_Source\PSoC5/Driver3.c ****         }    
 143:Generated_Source\PSoC5/Driver3.c ****     }
 144:Generated_Source\PSoC5/Driver3.c ****     
 145:Generated_Source\PSoC5/Driver3.c ****     
 146:Generated_Source\PSoC5/Driver3.c ****     /*********************** DMA configuration for the Segments ***********************/
 147:Generated_Source\PSoC5/Driver3.c ****     /* Get the DMA channels for the segments */
 148:Generated_Source\PSoC5/Driver3.c ****     Driver3_dmaSegChannel = Driver3_DMA_Seg_DmaInitialize(1u, 1u, 
 152              		.loc 1 148 0 is_stmt 1
 153 009c 4FF48043 		mov	r3, #16384
 154 00a0 41F6FF72 		movw	r2, #8191
 155 00a4 0121     		movs	r1, #1
 156 00a6 0846     		mov	r0, r1
 157 00a8 FFF7FEFF 		bl	Driver3_DMA_Seg_DmaInitialize
 158              	.LVL19:
 159 00ac 1B4B     		ldr	r3, .L21
 160 00ae 1873     		strb	r0, [r3, #12]
 149:Generated_Source\PSoC5/Driver3.c ****                                         HI16(Driver3_SRAM_BASE), HI16(Driver3_CONTROL_REG_BASE));
 150:Generated_Source\PSoC5/Driver3.c ****     
 151:Generated_Source\PSoC5/Driver3.c ****     /* Check if the segment channel is valid */
 152:Generated_Source\PSoC5/Driver3.c ****     if(Driver3_dmaSegChannel != DMA_INVALID_CHANNEL)
 161              		.loc 1 152 0
 162 00b0 FF28     		cmp	r0, #255
 163 00b2 08D1     		bne	.L19
 164 00b4 10BD     		pop	{r4, pc}
 165              	.LVL20:
 166              	.L13:
 153:Generated_Source\PSoC5/Driver3.c ****     {
 154:Generated_Source\PSoC5/Driver3.c ****         /* Allocate separate Tds for segments to implement the chain */
 155:Generated_Source\PSoC5/Driver3.c ****         for(i = 0u; i < Driver3_NUM_COM; i++)
 156:Generated_Source\PSoC5/Driver3.c ****         {
 157:Generated_Source\PSoC5/Driver3.c ****             Driver3_dmaSegLTd[i] = CyDmaTdAllocate();
 167              		.loc 1 157 0 discriminator 3
 168 00b6 FFF7FEFF 		bl	CyDmaTdAllocate
 169              	.LVL21:
 170 00ba 184B     		ldr	r3, .L21
 171 00bc 2344     		add	r3, r3, r4
 172 00be 1874     		strb	r0, [r3, #16]
 155:Generated_Source\PSoC5/Driver3.c ****         {
 173              		.loc 1 155 0 discriminator 3
 174 00c0 0134     		adds	r4, r4, #1
 175              	.LVL22:
ARM GAS  C:\Users\tmj32\AppData\Local\Temp\cchH8kkE.s 			page 7


 176 00c2 E4B2     		uxtb	r4, r4
 177              	.LVL23:
 178 00c4 00E0     		b	.L11
 179              	.LVL24:
 180              	.L19:
 181 00c6 0024     		movs	r4, #0
 182              	.L11:
 183              	.LVL25:
 155:Generated_Source\PSoC5/Driver3.c ****         {
 184              		.loc 1 155 0 is_stmt 0 discriminator 1
 185 00c8 032C     		cmp	r4, #3
 186 00ca F4D9     		bls	.L13
 187 00cc 0023     		movs	r3, #0
 188 00ce 0AE0     		b	.L14
 189              	.LVL26:
 190              	.L15:
 158:Generated_Source\PSoC5/Driver3.c ****             #if (Driver3_NUM_SEG > 8u)
 159:Generated_Source\PSoC5/Driver3.c ****                 Driver3_dmaSegMTd[i] = CyDmaTdAllocate();
 160:Generated_Source\PSoC5/Driver3.c ****             #endif /* (Driver3_NUM_SEG > 8u) */
 161:Generated_Source\PSoC5/Driver3.c ****             #if (Driver3_NUM_SEG > 16u)
 162:Generated_Source\PSoC5/Driver3.c ****                 Driver3_dmaSegHTd[i] = CyDmaTdAllocate();
 163:Generated_Source\PSoC5/Driver3.c ****             #endif /* (Driver3_NUM_SEG > 16u) */
 164:Generated_Source\PSoC5/Driver3.c ****         }
 165:Generated_Source\PSoC5/Driver3.c ****         
 166:Generated_Source\PSoC5/Driver3.c ****         /* Set the configuration for the Segment TDs */
 167:Generated_Source\PSoC5/Driver3.c ****         for(i = 0u; i < (Driver3_NUM_COM - 1u); i++)
 168:Generated_Source\PSoC5/Driver3.c ****         {
 169:Generated_Source\PSoC5/Driver3.c ****             #if (Driver3_NUM_SEG <= 8u)
 170:Generated_Source\PSoC5/Driver3.c ****                 (void) CyDmaTdSetConfiguration(Driver3_dmaSegLTd[i], 1u, Driver3_dmaSegLTd[i+1u],
 191              		.loc 1 170 0 is_stmt 1 discriminator 3
 192 00d0 124A     		ldr	r2, .L21
 193 00d2 D018     		adds	r0, r2, r3
 194 00d4 5C1C     		adds	r4, r3, #1
 195 00d6 2244     		add	r2, r2, r4
 196 00d8 0523     		movs	r3, #5
 197              	.LVL27:
 198 00da 127C     		ldrb	r2, [r2, #16]	@ zero_extendqisi2
 199 00dc 0121     		movs	r1, #1
 200 00de 007C     		ldrb	r0, [r0, #16]	@ zero_extendqisi2
 201 00e0 FFF7FEFF 		bl	CyDmaTdSetConfiguration
 202              	.LVL28:
 167:Generated_Source\PSoC5/Driver3.c ****         {
 203              		.loc 1 167 0 discriminator 3
 204 00e4 E3B2     		uxtb	r3, r4
 205              	.LVL29:
 206              	.L14:
 167:Generated_Source\PSoC5/Driver3.c ****         {
 207              		.loc 1 167 0 is_stmt 0 discriminator 1
 208 00e6 022B     		cmp	r3, #2
 209 00e8 F2D9     		bls	.L15
 171:Generated_Source\PSoC5/Driver3.c ****                                                 TD_INC_SRC_ADR | Driver3_DMA_Seg__TD_TERMOUT_EN);
 172:Generated_Source\PSoC5/Driver3.c ****             #else    
 173:Generated_Source\PSoC5/Driver3.c ****                 (void) CyDmaTdSetConfiguration(Driver3_dmaSegLTd[i], 1u, Driver3_dmaSegMTd[i],
 174:Generated_Source\PSoC5/Driver3.c ****                                                 TD_INC_SRC_ADR | TD_AUTO_EXEC_NEXT);
 175:Generated_Source\PSoC5/Driver3.c **** 
 176:Generated_Source\PSoC5/Driver3.c ****                 #if (Driver3_NUM_SEG <= 16u)
 177:Generated_Source\PSoC5/Driver3.c ****                     (void) CyDmaTdSetConfiguration(Driver3_dmaSegMTd[i], 1u, Driver3_dmaSegLTd[i+1u
ARM GAS  C:\Users\tmj32\AppData\Local\Temp\cchH8kkE.s 			page 8


 178:Generated_Source\PSoC5/Driver3.c ****                                                     TD_INC_SRC_ADR | Driver3_DMA_Seg__TD_TERMOUT_EN
 179:Generated_Source\PSoC5/Driver3.c ****                 #else    
 180:Generated_Source\PSoC5/Driver3.c ****                     (void) CyDmaTdSetConfiguration(Driver3_dmaSegMTd[i], 1u, Driver3_dmaSegHTd[i],
 181:Generated_Source\PSoC5/Driver3.c ****                                                     TD_INC_SRC_ADR | TD_AUTO_EXEC_NEXT);
 182:Generated_Source\PSoC5/Driver3.c ****                     (void) CyDmaTdSetConfiguration(Driver3_dmaSegHTd[i], 1u, Driver3_dmaSegLTd[i+1u
 183:Generated_Source\PSoC5/Driver3.c ****                                                     TD_INC_SRC_ADR | Driver3_DMA_Seg__TD_TERMOUT_EN
 184:Generated_Source\PSoC5/Driver3.c ****                 #endif /* Driver3_NUM_SEG <= 16u */
 185:Generated_Source\PSoC5/Driver3.c ****             #endif /* Driver3_NUM_SEG <= 8u */
 186:Generated_Source\PSoC5/Driver3.c ****         }
 187:Generated_Source\PSoC5/Driver3.c ****         
 188:Generated_Source\PSoC5/Driver3.c ****         /* Set the wraparound Segment TD configurations */
 189:Generated_Source\PSoC5/Driver3.c ****         #if (Driver3_NUM_SEG <= 8u)
 190:Generated_Source\PSoC5/Driver3.c ****             (void) CyDmaTdSetConfiguration(Driver3_dmaSegLTd[Driver3_NUM_COM - 1u],
 210              		.loc 1 190 0 is_stmt 1
 211 00ea 0C48     		ldr	r0, .L21
 212 00ec 0523     		movs	r3, #5
 213              	.LVL30:
 214 00ee 027C     		ldrb	r2, [r0, #16]	@ zero_extendqisi2
 215 00f0 0121     		movs	r1, #1
 216 00f2 C07C     		ldrb	r0, [r0, #19]	@ zero_extendqisi2
 217 00f4 FFF7FEFF 		bl	CyDmaTdSetConfiguration
 218              	.LVL31:
 191:Generated_Source\PSoC5/Driver3.c ****                                             1u, Driver3_dmaSegLTd[0u], 
 192:Generated_Source\PSoC5/Driver3.c ****                                             TD_INC_SRC_ADR | Driver3_DMA_Seg__TD_TERMOUT_EN);
 193:Generated_Source\PSoC5/Driver3.c ****         #else    
 194:Generated_Source\PSoC5/Driver3.c ****             (void) CyDmaTdSetConfiguration(Driver3_dmaSegLTd[Driver3_NUM_COM - 1u],
 195:Generated_Source\PSoC5/Driver3.c ****                                             1u, Driver3_dmaSegMTd[Driver3_NUM_COM - 1u],
 196:Generated_Source\PSoC5/Driver3.c ****                                             TD_INC_SRC_ADR | TD_AUTO_EXEC_NEXT);
 197:Generated_Source\PSoC5/Driver3.c ****             #if (Driver3_NUM_SEG <= 16u)
 198:Generated_Source\PSoC5/Driver3.c ****                 (void) CyDmaTdSetConfiguration(Driver3_dmaSegMTd[Driver3_NUM_COM - 1u],
 199:Generated_Source\PSoC5/Driver3.c ****                                                 1u, Driver3_dmaSegLTd[0u], 
 200:Generated_Source\PSoC5/Driver3.c ****                                                 TD_INC_SRC_ADR | Driver3_DMA_Seg__TD_TERMOUT_EN);
 201:Generated_Source\PSoC5/Driver3.c ****             #else    
 202:Generated_Source\PSoC5/Driver3.c ****                 (void) CyDmaTdSetConfiguration(Driver3_dmaSegMTd[Driver3_NUM_COM - 1u],
 203:Generated_Source\PSoC5/Driver3.c ****                                                 1u, Driver3_dmaSegHTd[Driver3_NUM_COM - 1u], 
 204:Generated_Source\PSoC5/Driver3.c ****                                                 TD_INC_SRC_ADR | TD_AUTO_EXEC_NEXT);
 205:Generated_Source\PSoC5/Driver3.c ****                 (void) CyDmaTdSetConfiguration(Driver3_dmaSegHTd[Driver3_NUM_COM - 1u],
 206:Generated_Source\PSoC5/Driver3.c ****                                                 1u, Driver3_dmaSegLTd[0u], 
 207:Generated_Source\PSoC5/Driver3.c ****                                                 TD_INC_SRC_ADR | Driver3_DMA_Seg__TD_TERMOUT_EN);
 208:Generated_Source\PSoC5/Driver3.c ****             #endif /* (Driver3_NUM_SEG <= 16u) */
 209:Generated_Source\PSoC5/Driver3.c ****         #endif /* (Driver3_NUM_SEG <= 8u) */
 210:Generated_Source\PSoC5/Driver3.c ****         
 211:Generated_Source\PSoC5/Driver3.c ****         /* The lower addresses for the segment TDs */
 212:Generated_Source\PSoC5/Driver3.c ****         for(i = 0u; i < Driver3_NUM_COM; i++)
 219              		.loc 1 212 0
 220 00f8 0024     		movs	r4, #0
 221 00fa 0BE0     		b	.L16
 222              	.LVL32:
 223              	.L17:
 213:Generated_Source\PSoC5/Driver3.c ****         {
 214:Generated_Source\PSoC5/Driver3.c ****             (void) CyDmaTdSetAddress(Driver3_dmaSegLTd[i],
 224              		.loc 1 214 0 discriminator 3
 225 00fc 074B     		ldr	r3, .L21
 226 00fe 2344     		add	r3, r3, r4
 215:Generated_Source\PSoC5/Driver3.c ****                                             LO16((uint32) &Driver3_segLBuffer[i]),
 227              		.loc 1 215 0 discriminator 3
 228 0100 0849     		ldr	r1, .L21+8
ARM GAS  C:\Users\tmj32\AppData\Local\Temp\cchH8kkE.s 			page 9


 229 0102 2144     		add	r1, r1, r4
 214:Generated_Source\PSoC5/Driver3.c ****                                             LO16((uint32) &Driver3_segLBuffer[i]),
 230              		.loc 1 214 0 discriminator 3
 231 0104 46F27A52 		movw	r2, #25978
 232 0108 89B2     		uxth	r1, r1
 233 010a 187C     		ldrb	r0, [r3, #16]	@ zero_extendqisi2
 234 010c FFF7FEFF 		bl	CyDmaTdSetAddress
 235              	.LVL33:
 212:Generated_Source\PSoC5/Driver3.c ****         {
 236              		.loc 1 212 0 discriminator 3
 237 0110 0134     		adds	r4, r4, #1
 238              	.LVL34:
 239 0112 E4B2     		uxtb	r4, r4
 240              	.LVL35:
 241              	.L16:
 212:Generated_Source\PSoC5/Driver3.c ****         {
 242              		.loc 1 212 0 is_stmt 0 discriminator 1
 243 0114 032C     		cmp	r4, #3
 244 0116 F1D9     		bls	.L17
 245 0118 10BD     		pop	{r4, pc}
 246              	.LVL36:
 247              	.L22:
 248 011a 00BF     		.align	2
 249              	.L21:
 250 011c 00000000 		.word	.LANCHOR0
 251 0120 00000000 		.word	.LANCHOR1
 252 0124 00000000 		.word	Driver3_segLBuffer
 253              		.cfi_endproc
 254              	.LFE0:
 255              		.size	Driver3_DmaInit, .-Driver3_DmaInit
 256              		.section	.text.Driver3_DmaEnable,"ax",%progbits
 257              		.align	2
 258              		.thumb
 259              		.thumb_func
 260              		.type	Driver3_DmaEnable, %function
 261              	Driver3_DmaEnable:
 262              	.LFB1:
 216:Generated_Source\PSoC5/Driver3.c ****                                             LO16((uint32) Driver3_SEG_L_CONTROL_PTR));
 217:Generated_Source\PSoC5/Driver3.c ****             #if (Driver3_NUM_SEG > 8u)
 218:Generated_Source\PSoC5/Driver3.c ****                 (void) CyDmaTdSetAddress(Driver3_dmaSegMTd[i],
 219:Generated_Source\PSoC5/Driver3.c ****                                             LO16((uint32) &Driver3_segMBuffer[i]),
 220:Generated_Source\PSoC5/Driver3.c ****                                             LO16((uint32) Driver3_SEG_M_CONTROL_PTR));
 221:Generated_Source\PSoC5/Driver3.c ****             #endif /* (Driver3_NUM_SEG > 8u) */
 222:Generated_Source\PSoC5/Driver3.c ****             #if (Driver3_NUM_SEG > 16u)
 223:Generated_Source\PSoC5/Driver3.c ****                 (void) CyDmaTdSetAddress(Driver3_dmaSegHTd[i], 
 224:Generated_Source\PSoC5/Driver3.c ****                                             LO16((uint32) &Driver3_segHBuffer[i]),
 225:Generated_Source\PSoC5/Driver3.c ****                                             LO16((uint32) Driver3_SEG_H_CONTROL_PTR));
 226:Generated_Source\PSoC5/Driver3.c ****             #endif /* (Driver3_NUM_SEG > 16u) */
 227:Generated_Source\PSoC5/Driver3.c ****         }
 228:Generated_Source\PSoC5/Driver3.c ****     }
 229:Generated_Source\PSoC5/Driver3.c ****     
 230:Generated_Source\PSoC5/Driver3.c ****     
 231:Generated_Source\PSoC5/Driver3.c ****     /******************** DMA configuration for Brightness control *********************/
 232:Generated_Source\PSoC5/Driver3.c ****     
 233:Generated_Source\PSoC5/Driver3.c ****     #if (Driver3_BRIGHTNESS_EN == Driver3_ENABLED)
 234:Generated_Source\PSoC5/Driver3.c ****         /* Get the DMA channels */
 235:Generated_Source\PSoC5/Driver3.c ****         Driver3_dmaBCChannel = Driver3_DMA_BC_DmaInitialize(1u, 1u, 
ARM GAS  C:\Users\tmj32\AppData\Local\Temp\cchH8kkE.s 			page 10


 236:Generated_Source\PSoC5/Driver3.c ****                                         HI16(Driver3_SRAM_BASE), HI16(Driver3_CONTROL_REG_BASE));
 237:Generated_Source\PSoC5/Driver3.c ****             
 238:Generated_Source\PSoC5/Driver3.c ****         /* Check if the channels are valid */
 239:Generated_Source\PSoC5/Driver3.c ****         if(Driver3_dmaBCChannel != DMA_INVALID_CHANNEL)
 240:Generated_Source\PSoC5/Driver3.c ****         {
 241:Generated_Source\PSoC5/Driver3.c ****             Driver3_dmaBCTd = CyDmaTdAllocate();
 242:Generated_Source\PSoC5/Driver3.c ****             
 243:Generated_Source\PSoC5/Driver3.c ****             /* Set the TD configuration for the brightness DMA */
 244:Generated_Source\PSoC5/Driver3.c ****             (void) CyDmaTdSetConfiguration(Driver3_dmaBCTd, Driver3_NUM_COM,
 245:Generated_Source\PSoC5/Driver3.c ****                                         Driver3_dmaBCTd, TD_INC_SRC_ADR);
 246:Generated_Source\PSoC5/Driver3.c ****             
 247:Generated_Source\PSoC5/Driver3.c ****             /* Lower address for the brightness Td */
 248:Generated_Source\PSoC5/Driver3.c ****             (void) CyDmaTdSetAddress(Driver3_dmaBCTd, LO16((uint32) &Driver3_brightnessReg[0u]),
 249:Generated_Source\PSoC5/Driver3.c ****                                                                LO16((uint32)Driver3_COMPARE_PTR));
 250:Generated_Source\PSoC5/Driver3.c ****         }
 251:Generated_Source\PSoC5/Driver3.c ****     #endif /* (Driver3_BRIGHTNESS_EN == Driver3_ENABLED) */
 252:Generated_Source\PSoC5/Driver3.c **** }
 253:Generated_Source\PSoC5/Driver3.c **** 
 254:Generated_Source\PSoC5/Driver3.c **** 
 255:Generated_Source\PSoC5/Driver3.c **** /*******************************************************************************
 256:Generated_Source\PSoC5/Driver3.c **** * Function Name: Driver3_DmaEnable
 257:Generated_Source\PSoC5/Driver3.c **** ********************************************************************************
 258:Generated_Source\PSoC5/Driver3.c **** *
 259:Generated_Source\PSoC5/Driver3.c **** * Summary: 
 260:Generated_Source\PSoC5/Driver3.c **** *  Enables the DMAs for transferring from the buffer register arrays to the
 261:Generated_Source\PSoC5/Driver3.c **** *  control registers.
 262:Generated_Source\PSoC5/Driver3.c **** *
 263:Generated_Source\PSoC5/Driver3.c **** * Parameters:
 264:Generated_Source\PSoC5/Driver3.c **** *  None
 265:Generated_Source\PSoC5/Driver3.c **** *
 266:Generated_Source\PSoC5/Driver3.c **** * Return: 
 267:Generated_Source\PSoC5/Driver3.c **** *  None
 268:Generated_Source\PSoC5/Driver3.c **** *
 269:Generated_Source\PSoC5/Driver3.c **** * Side Effects: 
 270:Generated_Source\PSoC5/Driver3.c **** *  None
 271:Generated_Source\PSoC5/Driver3.c **** *
 272:Generated_Source\PSoC5/Driver3.c **** *******************************************************************************/
 273:Generated_Source\PSoC5/Driver3.c **** static void Driver3_DmaEnable(void) 
 274:Generated_Source\PSoC5/Driver3.c **** {
 263              		.loc 1 274 0 is_stmt 1
 264              		.cfi_startproc
 265              		@ args = 0, pretend = 0, frame = 0
 266              		@ frame_needed = 0, uses_anonymous_args = 0
 267 0000 10B5     		push	{r4, lr}
 268              		.cfi_def_cfa_offset 8
 269              		.cfi_offset 4, -8
 270              		.cfi_offset 14, -4
 275:Generated_Source\PSoC5/Driver3.c ****     /* Initialize the TDs to the respective channels */
 276:Generated_Source\PSoC5/Driver3.c ****     (void) CyDmaChSetInitialTd(Driver3_dmaComChannel, Driver3_dmaComTd[0u]);
 271              		.loc 1 276 0
 272 0002 094C     		ldr	r4, .L25
 273 0004 2179     		ldrb	r1, [r4, #4]	@ zero_extendqisi2
 274 0006 2078     		ldrb	r0, [r4]	@ zero_extendqisi2
 275 0008 FFF7FEFF 		bl	CyDmaChSetInitialTd
 276              	.LVL37:
 277:Generated_Source\PSoC5/Driver3.c ****     (void) CyDmaChSetInitialTd(Driver3_dmaSegChannel, Driver3_dmaSegLTd[0u]);
 277              		.loc 1 277 0
ARM GAS  C:\Users\tmj32\AppData\Local\Temp\cchH8kkE.s 			page 11


 278 000c 217C     		ldrb	r1, [r4, #16]	@ zero_extendqisi2
 279 000e 207B     		ldrb	r0, [r4, #12]	@ zero_extendqisi2
 280 0010 FFF7FEFF 		bl	CyDmaChSetInitialTd
 281              	.LVL38:
 278:Generated_Source\PSoC5/Driver3.c ****     #if (Driver3_BRIGHTNESS_EN == Driver3_ENABLED)
 279:Generated_Source\PSoC5/Driver3.c ****         (void) CyDmaChSetInitialTd(Driver3_dmaBCChannel, Driver3_dmaBCTd);
 280:Generated_Source\PSoC5/Driver3.c ****     #endif /* (Driver3_BRIGHTNESS_EN == Driver3_ENABLED) */
 281:Generated_Source\PSoC5/Driver3.c ****     
 282:Generated_Source\PSoC5/Driver3.c ****     /* Enable all channels */
 283:Generated_Source\PSoC5/Driver3.c ****     (void) CyDmaChEnable(Driver3_dmaComChannel, 1u);
 282              		.loc 1 283 0
 283 0014 0121     		movs	r1, #1
 284 0016 2078     		ldrb	r0, [r4]	@ zero_extendqisi2
 285 0018 FFF7FEFF 		bl	CyDmaChEnable
 286              	.LVL39:
 284:Generated_Source\PSoC5/Driver3.c ****     (void) CyDmaChEnable(Driver3_dmaSegChannel, 1u);
 287              		.loc 1 284 0
 288 001c 0121     		movs	r1, #1
 289 001e 207B     		ldrb	r0, [r4, #12]	@ zero_extendqisi2
 290 0020 FFF7FEFF 		bl	CyDmaChEnable
 291              	.LVL40:
 292 0024 10BD     		pop	{r4, pc}
 293              	.L26:
 294 0026 00BF     		.align	2
 295              	.L25:
 296 0028 00000000 		.word	.LANCHOR0
 297              		.cfi_endproc
 298              	.LFE1:
 299              		.size	Driver3_DmaEnable, .-Driver3_DmaEnable
 300              		.section	.text.Driver3_DmaDisable,"ax",%progbits
 301              		.align	2
 302              		.thumb
 303              		.thumb_func
 304              		.type	Driver3_DmaDisable, %function
 305              	Driver3_DmaDisable:
 306              	.LFB2:
 285:Generated_Source\PSoC5/Driver3.c ****     #if (Driver3_BRIGHTNESS_EN == Driver3_ENABLED)
 286:Generated_Source\PSoC5/Driver3.c ****         (void) CyDmaChEnable(Driver3_dmaBCChannel, 1u);
 287:Generated_Source\PSoC5/Driver3.c ****     #endif /* (Driver3_BRIGHTNESS_EN == Driver3_ENABLED) */
 288:Generated_Source\PSoC5/Driver3.c **** }
 289:Generated_Source\PSoC5/Driver3.c **** 
 290:Generated_Source\PSoC5/Driver3.c **** 
 291:Generated_Source\PSoC5/Driver3.c **** /*******************************************************************************
 292:Generated_Source\PSoC5/Driver3.c **** * Function Name: Driver3_DmaDisable
 293:Generated_Source\PSoC5/Driver3.c **** ********************************************************************************
 294:Generated_Source\PSoC5/Driver3.c **** *
 295:Generated_Source\PSoC5/Driver3.c **** * Summary: 
 296:Generated_Source\PSoC5/Driver3.c **** *  Disables the DMAs for transferring from register array to the control 
 297:Generated_Source\PSoC5/Driver3.c **** *  register.
 298:Generated_Source\PSoC5/Driver3.c **** *
 299:Generated_Source\PSoC5/Driver3.c **** * Parameters:
 300:Generated_Source\PSoC5/Driver3.c **** *  None
 301:Generated_Source\PSoC5/Driver3.c **** *
 302:Generated_Source\PSoC5/Driver3.c **** * Return: 
 303:Generated_Source\PSoC5/Driver3.c **** *  None
 304:Generated_Source\PSoC5/Driver3.c **** *
 305:Generated_Source\PSoC5/Driver3.c **** * Side Effects: 
ARM GAS  C:\Users\tmj32\AppData\Local\Temp\cchH8kkE.s 			page 12


 306:Generated_Source\PSoC5/Driver3.c **** *  None
 307:Generated_Source\PSoC5/Driver3.c **** *
 308:Generated_Source\PSoC5/Driver3.c **** *******************************************************************************/
 309:Generated_Source\PSoC5/Driver3.c **** static void Driver3_DmaDisable(void) 
 310:Generated_Source\PSoC5/Driver3.c **** {
 307              		.loc 1 310 0
 308              		.cfi_startproc
 309              		@ args = 0, pretend = 0, frame = 8
 310              		@ frame_needed = 0, uses_anonymous_args = 0
 311 0000 70B5     		push	{r4, r5, r6, lr}
 312              		.cfi_def_cfa_offset 16
 313              		.cfi_offset 4, -16
 314              		.cfi_offset 5, -12
 315              		.cfi_offset 6, -8
 316              		.cfi_offset 14, -4
 317 0002 82B0     		sub	sp, sp, #8
 318              		.cfi_def_cfa_offset 24
 311:Generated_Source\PSoC5/Driver3.c ****     uint8 i;
 312:Generated_Source\PSoC5/Driver3.c ****     uint8 channel;
 313:Generated_Source\PSoC5/Driver3.c ****     uint8 dmaChannelList[Driver3_CHANNEL_LIMIT];
 314:Generated_Source\PSoC5/Driver3.c ****     
 315:Generated_Source\PSoC5/Driver3.c ****     dmaChannelList[0u] = Driver3_dmaComChannel;
 319              		.loc 1 315 0
 320 0004 154B     		ldr	r3, .L33
 321 0006 1A78     		ldrb	r2, [r3]	@ zero_extendqisi2
 322 0008 8DF80420 		strb	r2, [sp, #4]
 316:Generated_Source\PSoC5/Driver3.c ****     dmaChannelList[1u] = Driver3_dmaSegChannel;
 323              		.loc 1 316 0
 324 000c 1B7B     		ldrb	r3, [r3, #12]	@ zero_extendqisi2
 325 000e 8DF80530 		strb	r3, [sp, #5]
 326              	.LVL41:
 317:Generated_Source\PSoC5/Driver3.c ****     #if (Driver3_BRIGHTNESS_EN == Driver3_ENABLED)
 318:Generated_Source\PSoC5/Driver3.c ****         dmaChannelList[2u] = Driver3_dmaBCChannel;
 319:Generated_Source\PSoC5/Driver3.c ****     #endif /* (Driver3_BRIGHTNESS_EN == Driver3_ENABLED) */
 320:Generated_Source\PSoC5/Driver3.c **** 
 321:Generated_Source\PSoC5/Driver3.c ****     for(i = 0u; i < Driver3_CHANNEL_LIMIT; i++)
 327              		.loc 1 321 0
 328 0012 0026     		movs	r6, #0
 329 0014 1EE0     		b	.L28
 330              	.LVL42:
 331              	.L31:
 322:Generated_Source\PSoC5/Driver3.c ****     {
 323:Generated_Source\PSoC5/Driver3.c ****         channel = dmaChannelList[i];
 332              		.loc 1 323 0
 333 0016 02AB     		add	r3, sp, #8
 334 0018 3344     		add	r3, r3, r6
 335 001a 13F8045C 		ldrb	r5, [r3, #-4]	@ zero_extendqisi2
 336              	.LVL43:
 324:Generated_Source\PSoC5/Driver3.c ****         (void) CyDmaChDisable(channel);
 337              		.loc 1 324 0
 338 001e 2846     		mov	r0, r5
 339 0020 FFF7FEFF 		bl	CyDmaChDisable
 340              	.LVL44:
 325:Generated_Source\PSoC5/Driver3.c ****         
 326:Generated_Source\PSoC5/Driver3.c ****         Driver3_Com_Driver_Write(Driver3_CLEAR);
 341              		.loc 1 326 0
 342 0024 FF20     		movs	r0, #255
ARM GAS  C:\Users\tmj32\AppData\Local\Temp\cchH8kkE.s 			page 13


 343 0026 FFF7FEFF 		bl	Driver3_Com_Driver_Write
 344              	.LVL45:
 345              	.L29:
 327:Generated_Source\PSoC5/Driver3.c ****         
 328:Generated_Source\PSoC5/Driver3.c ****         /* Clear any potential DMA requests and re-reset TD pointers */
 329:Generated_Source\PSoC5/Driver3.c ****         while(0u != (CY_DMA_CH_STRUCT_PTR[channel].basic_status[0u] & CY_DMA_STATUS_TD_ACTIVE))
 346              		.loc 1 329 0 discriminator 1
 347 002a 0D4C     		ldr	r4, .L33+4
 348 002c 04EB0514 		add	r4, r4, r5, lsl #4
 349 0030 237A     		ldrb	r3, [r4, #8]	@ zero_extendqisi2
 350 0032 13F0020F 		tst	r3, #2
 351 0036 F8D1     		bne	.L29
 330:Generated_Source\PSoC5/Driver3.c ****         {
 331:Generated_Source\PSoC5/Driver3.c ****             ; /* Wait for to be cleared */
 332:Generated_Source\PSoC5/Driver3.c ****         }
 333:Generated_Source\PSoC5/Driver3.c **** 
 334:Generated_Source\PSoC5/Driver3.c ****         (void) CyDmaChSetRequest(channel, CY_DMA_CPU_TERM_CHAIN);
 352              		.loc 1 334 0
 353 0038 0421     		movs	r1, #4
 354 003a 2846     		mov	r0, r5
 355 003c FFF7FEFF 		bl	CyDmaChSetRequest
 356              	.LVL46:
 335:Generated_Source\PSoC5/Driver3.c ****         (void) CyDmaChEnable    (channel, 1u);
 357              		.loc 1 335 0
 358 0040 0121     		movs	r1, #1
 359 0042 2846     		mov	r0, r5
 360 0044 FFF7FEFF 		bl	CyDmaChEnable
 361              	.LVL47:
 362              	.L30:
 336:Generated_Source\PSoC5/Driver3.c **** 
 337:Generated_Source\PSoC5/Driver3.c ****         while(0u != (CY_DMA_CH_STRUCT_PTR[channel].basic_cfg[0u] & CY_DMA_STATUS_CHAIN_ACTIVE))
 363              		.loc 1 337 0 discriminator 1
 364 0048 2378     		ldrb	r3, [r4]	@ zero_extendqisi2
 365 004a 13F0010F 		tst	r3, #1
 366 004e FBD1     		bne	.L30
 321:Generated_Source\PSoC5/Driver3.c ****     {
 367              		.loc 1 321 0 discriminator 2
 368 0050 0136     		adds	r6, r6, #1
 369              	.LVL48:
 370 0052 F6B2     		uxtb	r6, r6
 371              	.LVL49:
 372              	.L28:
 321:Generated_Source\PSoC5/Driver3.c ****     {
 373              		.loc 1 321 0 is_stmt 0 discriminator 1
 374 0054 012E     		cmp	r6, #1
 375 0056 DED9     		bls	.L31
 338:Generated_Source\PSoC5/Driver3.c ****         {
 339:Generated_Source\PSoC5/Driver3.c ****             ; /* Wait for to be cleared */
 340:Generated_Source\PSoC5/Driver3.c ****         }
 341:Generated_Source\PSoC5/Driver3.c ****     }
 342:Generated_Source\PSoC5/Driver3.c **** }
 376              		.loc 1 342 0 is_stmt 1
 377 0058 02B0     		add	sp, sp, #8
 378              		.cfi_def_cfa_offset 16
 379              		@ sp needed
 380 005a 70BD     		pop	{r4, r5, r6, pc}
 381              	.LVL50:
ARM GAS  C:\Users\tmj32\AppData\Local\Temp\cchH8kkE.s 			page 14


 382              	.L34:
 383              		.align	2
 384              	.L33:
 385 005c 00000000 		.word	.LANCHOR0
 386 0060 10700040 		.word	1073770512
 387              		.cfi_endproc
 388              	.LFE2:
 389              		.size	Driver3_DmaDisable, .-Driver3_DmaDisable
 390              		.section	.text.Driver3_Enable,"ax",%progbits
 391              		.align	2
 392              		.global	Driver3_Enable
 393              		.thumb
 394              		.thumb_func
 395              		.type	Driver3_Enable, %function
 396              	Driver3_Enable:
 397              	.LFB4:
 343:Generated_Source\PSoC5/Driver3.c **** 
 344:Generated_Source\PSoC5/Driver3.c **** 
 345:Generated_Source\PSoC5/Driver3.c **** /*******************************************************************************
 346:Generated_Source\PSoC5/Driver3.c **** * Function Name: Driver3_Init
 347:Generated_Source\PSoC5/Driver3.c **** ********************************************************************************
 348:Generated_Source\PSoC5/Driver3.c **** *
 349:Generated_Source\PSoC5/Driver3.c **** * Summary: 
 350:Generated_Source\PSoC5/Driver3.c **** *  Performs initialization required for the component to operate.
 351:Generated_Source\PSoC5/Driver3.c **** *
 352:Generated_Source\PSoC5/Driver3.c **** * Parameters:
 353:Generated_Source\PSoC5/Driver3.c **** *  None
 354:Generated_Source\PSoC5/Driver3.c **** *
 355:Generated_Source\PSoC5/Driver3.c **** * Return: 
 356:Generated_Source\PSoC5/Driver3.c **** *  None
 357:Generated_Source\PSoC5/Driver3.c **** *
 358:Generated_Source\PSoC5/Driver3.c **** * Side Effects: 
 359:Generated_Source\PSoC5/Driver3.c **** *  This action clears the display.
 360:Generated_Source\PSoC5/Driver3.c **** *
 361:Generated_Source\PSoC5/Driver3.c **** *******************************************************************************/
 362:Generated_Source\PSoC5/Driver3.c **** void Driver3_Init(void) 
 363:Generated_Source\PSoC5/Driver3.c **** {
 364:Generated_Source\PSoC5/Driver3.c ****     static uint8 Driver3_dmaInitDone = 0u;
 365:Generated_Source\PSoC5/Driver3.c ****     #if (Driver3_BRIGHTNESS_EN == Driver3_ENABLED)
 366:Generated_Source\PSoC5/Driver3.c ****         uint8 i;
 367:Generated_Source\PSoC5/Driver3.c ****     #endif /* (Driver3_BRIGHTNESS_EN == Driver3_ENABLED) */
 368:Generated_Source\PSoC5/Driver3.c ****     
 369:Generated_Source\PSoC5/Driver3.c ****     /* Start fresh by clearing the display */
 370:Generated_Source\PSoC5/Driver3.c ****     Driver3_ClearDisplayAll();
 371:Generated_Source\PSoC5/Driver3.c ****     
 372:Generated_Source\PSoC5/Driver3.c ****     /* Initialize the DMAs */
 373:Generated_Source\PSoC5/Driver3.c ****     if(0u == Driver3_dmaInitDone)
 374:Generated_Source\PSoC5/Driver3.c ****     {
 375:Generated_Source\PSoC5/Driver3.c ****         Driver3_DmaInit();
 376:Generated_Source\PSoC5/Driver3.c ****         Driver3_dmaInitDone = 1u;
 377:Generated_Source\PSoC5/Driver3.c ****     }
 378:Generated_Source\PSoC5/Driver3.c ****     
 379:Generated_Source\PSoC5/Driver3.c ****     /* Set the brightness to full */
 380:Generated_Source\PSoC5/Driver3.c ****     #if (Driver3_BRIGHTNESS_EN == Driver3_ENABLED)
 381:Generated_Source\PSoC5/Driver3.c ****         for(i = 0u; i<(Driver3_NUM_COM); i++)
 382:Generated_Source\PSoC5/Driver3.c ****         {
 383:Generated_Source\PSoC5/Driver3.c ****             Driver3_brightnessReg[i] = Driver3_INIT_BRIGHT;
ARM GAS  C:\Users\tmj32\AppData\Local\Temp\cchH8kkE.s 			page 15


 384:Generated_Source\PSoC5/Driver3.c ****         }
 385:Generated_Source\PSoC5/Driver3.c ****     #endif /* (Driver3_BRIGHTNESS_EN == Driver3_ENABLED) */
 386:Generated_Source\PSoC5/Driver3.c **** }
 387:Generated_Source\PSoC5/Driver3.c **** 
 388:Generated_Source\PSoC5/Driver3.c **** 
 389:Generated_Source\PSoC5/Driver3.c **** /*******************************************************************************
 390:Generated_Source\PSoC5/Driver3.c **** * Function Name: Driver3_Enable
 391:Generated_Source\PSoC5/Driver3.c **** ********************************************************************************
 392:Generated_Source\PSoC5/Driver3.c **** *
 393:Generated_Source\PSoC5/Driver3.c **** * Summary: 
 394:Generated_Source\PSoC5/Driver3.c **** *  Turns on the display.
 395:Generated_Source\PSoC5/Driver3.c **** *
 396:Generated_Source\PSoC5/Driver3.c **** * Parameters:
 397:Generated_Source\PSoC5/Driver3.c **** *  None
 398:Generated_Source\PSoC5/Driver3.c **** *
 399:Generated_Source\PSoC5/Driver3.c **** * Return: 
 400:Generated_Source\PSoC5/Driver3.c **** *  None
 401:Generated_Source\PSoC5/Driver3.c **** *
 402:Generated_Source\PSoC5/Driver3.c **** * Side Effects: 
 403:Generated_Source\PSoC5/Driver3.c **** *  None
 404:Generated_Source\PSoC5/Driver3.c **** *
 405:Generated_Source\PSoC5/Driver3.c **** *******************************************************************************/
 406:Generated_Source\PSoC5/Driver3.c **** void Driver3_Enable(void) 
 407:Generated_Source\PSoC5/Driver3.c **** {
 398              		.loc 1 407 0
 399              		.cfi_startproc
 400              		@ args = 0, pretend = 0, frame = 0
 401              		@ frame_needed = 0, uses_anonymous_args = 0
 402 0000 08B5     		push	{r3, lr}
 403              		.cfi_def_cfa_offset 8
 404              		.cfi_offset 3, -8
 405              		.cfi_offset 14, -4
 408:Generated_Source\PSoC5/Driver3.c ****     /* Enable the DMAs */
 409:Generated_Source\PSoC5/Driver3.c ****     Driver3_DmaEnable();
 406              		.loc 1 409 0
 407 0002 FFF7FEFF 		bl	Driver3_DmaEnable
 408              	.LVL51:
 410:Generated_Source\PSoC5/Driver3.c ****  
 411:Generated_Source\PSoC5/Driver3.c ****     #if (Driver3_BRIGHTNESS_EN == Driver3_ENABLED)
 412:Generated_Source\PSoC5/Driver3.c ****        /* Initialize to zero */
 413:Generated_Source\PSoC5/Driver3.c ****        Driver3_COUNTER_REG = 0x00u;
 414:Generated_Source\PSoC5/Driver3.c ****        Driver3_COMPARE_REG = 0x00u;
 415:Generated_Source\PSoC5/Driver3.c ****        
 416:Generated_Source\PSoC5/Driver3.c ****         /* Enable the PWM for brightness control */
 417:Generated_Source\PSoC5/Driver3.c ****        Driver3_CONTROL_REG = Driver3_CTRL_ENABLE;
 418:Generated_Source\PSoC5/Driver3.c ****     #endif /* (Driver3_BRIGHTNESS_EN == Driver3_ENABLED) */
 419:Generated_Source\PSoC5/Driver3.c ****     
 420:Generated_Source\PSoC5/Driver3.c ****     Driver3_enableVar = Driver3_CTRL_ENABLE;
 409              		.loc 1 420 0
 410 0006 0122     		movs	r2, #1
 411 0008 014B     		ldr	r3, .L37
 412 000a 1A75     		strb	r2, [r3, #20]
 413 000c 08BD     		pop	{r3, pc}
 414              	.L38:
 415 000e 00BF     		.align	2
 416              	.L37:
 417 0010 00000000 		.word	.LANCHOR0
ARM GAS  C:\Users\tmj32\AppData\Local\Temp\cchH8kkE.s 			page 16


 418              		.cfi_endproc
 419              	.LFE4:
 420              		.size	Driver3_Enable, .-Driver3_Enable
 421              		.section	.text.Driver3_SetDisplayRAM,"ax",%progbits
 422              		.align	2
 423              		.global	Driver3_SetDisplayRAM
 424              		.thumb
 425              		.thumb_func
 426              		.type	Driver3_SetDisplayRAM, %function
 427              	Driver3_SetDisplayRAM:
 428              	.LFB7:
 421:Generated_Source\PSoC5/Driver3.c **** }
 422:Generated_Source\PSoC5/Driver3.c **** 
 423:Generated_Source\PSoC5/Driver3.c **** 
 424:Generated_Source\PSoC5/Driver3.c **** /*******************************************************************************
 425:Generated_Source\PSoC5/Driver3.c **** * Function Name: Driver3_Start
 426:Generated_Source\PSoC5/Driver3.c **** ********************************************************************************
 427:Generated_Source\PSoC5/Driver3.c **** *
 428:Generated_Source\PSoC5/Driver3.c **** * Summary:
 429:Generated_Source\PSoC5/Driver3.c **** *  Configures the hardware (DMA and optional PWM) and enables the LED
 430:Generated_Source\PSoC5/Driver3.c **** *  display. Whatever is currently in the display RAM will be displayed on the 
 431:Generated_Source\PSoC5/Driver3.c **** *  LED display. The display RAM is an array of 1 to 24 bytes called 
 432:Generated_Source\PSoC5/Driver3.c **** *  LED_Driver_1_SegmentRam[].
 433:Generated_Source\PSoC5/Driver3.c **** *
 434:Generated_Source\PSoC5/Driver3.c **** * Parameters:
 435:Generated_Source\PSoC5/Driver3.c **** *  None
 436:Generated_Source\PSoC5/Driver3.c **** *
 437:Generated_Source\PSoC5/Driver3.c **** * Return:
 438:Generated_Source\PSoC5/Driver3.c **** *  None
 439:Generated_Source\PSoC5/Driver3.c **** *
 440:Generated_Source\PSoC5/Driver3.c **** * Side effects: 
 441:Generated_Source\PSoC5/Driver3.c **** *  None
 442:Generated_Source\PSoC5/Driver3.c **** *
 443:Generated_Source\PSoC5/Driver3.c **** *******************************************************************************/
 444:Generated_Source\PSoC5/Driver3.c **** void Driver3_Start(void) 
 445:Generated_Source\PSoC5/Driver3.c **** {
 446:Generated_Source\PSoC5/Driver3.c ****     if(0u == Driver3_initVar)
 447:Generated_Source\PSoC5/Driver3.c ****     {
 448:Generated_Source\PSoC5/Driver3.c ****         Driver3_Init();
 449:Generated_Source\PSoC5/Driver3.c ****         Driver3_initVar = 1u;
 450:Generated_Source\PSoC5/Driver3.c ****     }
 451:Generated_Source\PSoC5/Driver3.c **** 
 452:Generated_Source\PSoC5/Driver3.c ****     Driver3_Enable();
 453:Generated_Source\PSoC5/Driver3.c **** }
 454:Generated_Source\PSoC5/Driver3.c **** 
 455:Generated_Source\PSoC5/Driver3.c **** 
 456:Generated_Source\PSoC5/Driver3.c **** /*******************************************************************************
 457:Generated_Source\PSoC5/Driver3.c **** * Function Name: Driver3_Stop
 458:Generated_Source\PSoC5/Driver3.c **** ********************************************************************************
 459:Generated_Source\PSoC5/Driver3.c **** *
 460:Generated_Source\PSoC5/Driver3.c **** * Summary:
 461:Generated_Source\PSoC5/Driver3.c **** *  Clears the display SRAM, disables all DMA channels and the stops the PWM
 462:Generated_Source\PSoC5/Driver3.c **** *  (if enabled in the customizer).
 463:Generated_Source\PSoC5/Driver3.c **** *
 464:Generated_Source\PSoC5/Driver3.c **** * Parameters:
 465:Generated_Source\PSoC5/Driver3.c **** *  None
 466:Generated_Source\PSoC5/Driver3.c **** *
ARM GAS  C:\Users\tmj32\AppData\Local\Temp\cchH8kkE.s 			page 17


 467:Generated_Source\PSoC5/Driver3.c **** * Return:
 468:Generated_Source\PSoC5/Driver3.c **** *  None
 469:Generated_Source\PSoC5/Driver3.c **** *
 470:Generated_Source\PSoC5/Driver3.c **** * Side effects:
 471:Generated_Source\PSoC5/Driver3.c **** *  None
 472:Generated_Source\PSoC5/Driver3.c **** *
 473:Generated_Source\PSoC5/Driver3.c **** *******************************************************************************/
 474:Generated_Source\PSoC5/Driver3.c **** void Driver3_Stop(void) 
 475:Generated_Source\PSoC5/Driver3.c **** {
 476:Generated_Source\PSoC5/Driver3.c ****     #if (Driver3_BRIGHTNESS_EN == Driver3_ENABLED)
 477:Generated_Source\PSoC5/Driver3.c ****         /* Disable the PWM */
 478:Generated_Source\PSoC5/Driver3.c ****         Driver3_CONTROL_REG = Driver3_CTRL_DISABLE;
 479:Generated_Source\PSoC5/Driver3.c ****     #endif /* (Driver3_BRIGHTNESS_EN == Driver3_ENABLED) */
 480:Generated_Source\PSoC5/Driver3.c ****     
 481:Generated_Source\PSoC5/Driver3.c ****     Driver3_DmaDisable();
 482:Generated_Source\PSoC5/Driver3.c ****     Driver3_ClearDisplayAll();
 483:Generated_Source\PSoC5/Driver3.c ****     
 484:Generated_Source\PSoC5/Driver3.c ****     Driver3_enableVar  = Driver3_CTRL_DISABLE;
 485:Generated_Source\PSoC5/Driver3.c **** }
 486:Generated_Source\PSoC5/Driver3.c **** 
 487:Generated_Source\PSoC5/Driver3.c **** 
 488:Generated_Source\PSoC5/Driver3.c **** /*******************************************************************************
 489:Generated_Source\PSoC5/Driver3.c **** * Function Name: Driver3_SetDisplayRAM
 490:Generated_Source\PSoC5/Driver3.c **** ********************************************************************************
 491:Generated_Source\PSoC5/Driver3.c **** *
 492:Generated_Source\PSoC5/Driver3.c **** * Summary:
 493:Generated_Source\PSoC5/Driver3.c **** *  Writes 'value' directly into the display RAM. It is not necessary to use 
 494:Generated_Source\PSoC5/Driver3.c **** *  this API to manipulate the display RAM, you can also access the display 
 495:Generated_Source\PSoC5/Driver3.c **** *  RAM directly by writing to Driver3_segLBuffer,
 496:Generated_Source\PSoC5/Driver3.c **** *  Driver3_segMBuffer, Driver3_segHBuffer.
 497:Generated_Source\PSoC5/Driver3.c **** *
 498:Generated_Source\PSoC5/Driver3.c **** * Parameters:
 499:Generated_Source\PSoC5/Driver3.c **** *  uint8 value: Desired value to write into the display RAM. A '1' enables the
 500:Generated_Source\PSoC5/Driver3.c **** *               segment, a '0' disables the segment.
 501:Generated_Source\PSoC5/Driver3.c **** *  uint8 position: Position of the display that is modified.
 502:Generated_Source\PSoC5/Driver3.c **** *
 503:Generated_Source\PSoC5/Driver3.c **** * Return:
 504:Generated_Source\PSoC5/Driver3.c **** *  None
 505:Generated_Source\PSoC5/Driver3.c **** *
 506:Generated_Source\PSoC5/Driver3.c **** * Side effects:
 507:Generated_Source\PSoC5/Driver3.c **** *  None
 508:Generated_Source\PSoC5/Driver3.c **** *
 509:Generated_Source\PSoC5/Driver3.c **** *******************************************************************************/
 510:Generated_Source\PSoC5/Driver3.c **** void Driver3_SetDisplayRAM(uint8 value, uint8 position) 
 511:Generated_Source\PSoC5/Driver3.c **** {
 429              		.loc 1 511 0
 430              		.cfi_startproc
 431              		@ args = 0, pretend = 0, frame = 0
 432              		@ frame_needed = 0, uses_anonymous_args = 0
 433              		@ link register save eliminated.
 434              	.LVL52:
 512:Generated_Source\PSoC5/Driver3.c ****     uint8 relPosition;
 513:Generated_Source\PSoC5/Driver3.c ****     
 514:Generated_Source\PSoC5/Driver3.c ****     if(position < Driver3_NUM_COM)
 435              		.loc 1 514 0
 436 0000 0329     		cmp	r1, #3
 437 0002 02D8     		bhi	.L39
ARM GAS  C:\Users\tmj32\AppData\Local\Temp\cchH8kkE.s 			page 18


 438              	.LVL53:
 515:Generated_Source\PSoC5/Driver3.c ****     {
 516:Generated_Source\PSoC5/Driver3.c ****         relPosition = position;
 517:Generated_Source\PSoC5/Driver3.c ****         #if(Driver3_SEG_DRIVE == Driver3_HIGH)
 518:Generated_Source\PSoC5/Driver3.c ****             Driver3_segLBuffer[relPosition] = value;
 519:Generated_Source\PSoC5/Driver3.c ****         #else
 520:Generated_Source\PSoC5/Driver3.c ****             Driver3_segLBuffer[relPosition] = ((uint8) ~value);
 439              		.loc 1 520 0
 440 0004 C043     		mvns	r0, r0
 441              	.LVL54:
 442 0006 014B     		ldr	r3, .L41
 443 0008 5854     		strb	r0, [r3, r1]
 444              	.LVL55:
 445              	.L39:
 446 000a 7047     		bx	lr
 447              	.L42:
 448              		.align	2
 449              	.L41:
 450 000c 00000000 		.word	Driver3_segLBuffer
 451              		.cfi_endproc
 452              	.LFE7:
 453              		.size	Driver3_SetDisplayRAM, .-Driver3_SetDisplayRAM
 454              		.section	.text.Driver3_SetRC,"ax",%progbits
 455              		.align	2
 456              		.global	Driver3_SetRC
 457              		.thumb
 458              		.thumb_func
 459              		.type	Driver3_SetRC, %function
 460              	Driver3_SetRC:
 461              	.LFB8:
 521:Generated_Source\PSoC5/Driver3.c ****         #endif /* Driver3_SEG_DRIVE == Driver3_HIGH */
 522:Generated_Source\PSoC5/Driver3.c ****     }    
 523:Generated_Source\PSoC5/Driver3.c ****     else if (position < Driver3_TWO_NUM_COM)
 524:Generated_Source\PSoC5/Driver3.c ****     {
 525:Generated_Source\PSoC5/Driver3.c ****         #if (Driver3_NUM_SEG > 8u)
 526:Generated_Source\PSoC5/Driver3.c ****             relPosition = position - Driver3_NUM_COM;
 527:Generated_Source\PSoC5/Driver3.c ****             #if(Driver3_SEG_DRIVE == Driver3_HIGH)
 528:Generated_Source\PSoC5/Driver3.c ****                 Driver3_segMBuffer[relPosition] = value;
 529:Generated_Source\PSoC5/Driver3.c ****             #else
 530:Generated_Source\PSoC5/Driver3.c ****                 Driver3_segMBuffer[relPosition] = ((uint8) ~value);
 531:Generated_Source\PSoC5/Driver3.c ****             #endif /* Driver3_SEG_DRIVE == Driver3_HIGH */
 532:Generated_Source\PSoC5/Driver3.c ****         #endif /* (Driver3_NUM_SEG > 8u) */
 533:Generated_Source\PSoC5/Driver3.c ****     }
 534:Generated_Source\PSoC5/Driver3.c ****     else
 535:Generated_Source\PSoC5/Driver3.c ****     {
 536:Generated_Source\PSoC5/Driver3.c ****         #if (Driver3_NUM_SEG > 16u)
 537:Generated_Source\PSoC5/Driver3.c ****             relPosition = position - Driver3_TWO_NUM_COM;
 538:Generated_Source\PSoC5/Driver3.c ****             if(relPosition < Driver3_NUM_COM)
 539:Generated_Source\PSoC5/Driver3.c ****             {
 540:Generated_Source\PSoC5/Driver3.c ****                 #if(Driver3_SEG_DRIVE == Driver3_HIGH)
 541:Generated_Source\PSoC5/Driver3.c ****                     Driver3_segHBuffer[relPosition] = value;
 542:Generated_Source\PSoC5/Driver3.c ****                 #else
 543:Generated_Source\PSoC5/Driver3.c ****                     Driver3_segMBuffer[relPosition] = ((uint8) ~value);
 544:Generated_Source\PSoC5/Driver3.c ****                 #endif /* Driver3_SEG_DRIVE == Driver3_HIGH */
 545:Generated_Source\PSoC5/Driver3.c ****             }
 546:Generated_Source\PSoC5/Driver3.c ****         #endif /* (Driver3_NUM_SEG > 16u) */
 547:Generated_Source\PSoC5/Driver3.c ****     }
ARM GAS  C:\Users\tmj32\AppData\Local\Temp\cchH8kkE.s 			page 19


 548:Generated_Source\PSoC5/Driver3.c **** }
 549:Generated_Source\PSoC5/Driver3.c **** 
 550:Generated_Source\PSoC5/Driver3.c **** 
 551:Generated_Source\PSoC5/Driver3.c **** /*******************************************************************************
 552:Generated_Source\PSoC5/Driver3.c **** * Function Name: Driver3_SetRC
 553:Generated_Source\PSoC5/Driver3.c **** ********************************************************************************
 554:Generated_Source\PSoC5/Driver3.c **** *
 555:Generated_Source\PSoC5/Driver3.c **** * Summary:
 556:Generated_Source\PSoC5/Driver3.c **** *  Sets the bit in the display RAM corresponding to the LED in the designated
 557:Generated_Source\PSoC5/Driver3.c **** *  row and column. Rows are the segments and columns are the commons.
 558:Generated_Source\PSoC5/Driver3.c **** *
 559:Generated_Source\PSoC5/Driver3.c **** * Parameters:
 560:Generated_Source\PSoC5/Driver3.c **** *  uint8 row: Row value 0 to 23.
 561:Generated_Source\PSoC5/Driver3.c **** *  uint8 col: Column between 0 and 7.
 562:Generated_Source\PSoC5/Driver3.c **** *
 563:Generated_Source\PSoC5/Driver3.c **** * Return:
 564:Generated_Source\PSoC5/Driver3.c **** *  None
 565:Generated_Source\PSoC5/Driver3.c **** *
 566:Generated_Source\PSoC5/Driver3.c **** * Side effects:
 567:Generated_Source\PSoC5/Driver3.c **** *  None
 568:Generated_Source\PSoC5/Driver3.c **** *
 569:Generated_Source\PSoC5/Driver3.c **** *******************************************************************************/
 570:Generated_Source\PSoC5/Driver3.c **** void Driver3_SetRC(uint8 row, uint8 column) 
 571:Generated_Source\PSoC5/Driver3.c **** {
 462              		.loc 1 571 0
 463              		.cfi_startproc
 464              		@ args = 0, pretend = 0, frame = 0
 465              		@ frame_needed = 0, uses_anonymous_args = 0
 466              		@ link register save eliminated.
 467              	.LVL56:
 572:Generated_Source\PSoC5/Driver3.c ****     uint8 rowSeg;
 573:Generated_Source\PSoC5/Driver3.c ****     
 574:Generated_Source\PSoC5/Driver3.c ****     if(column < Driver3_NUM_COM)
 468              		.loc 1 574 0
 469 0000 0329     		cmp	r1, #3
 470 0002 09D8     		bhi	.L43
 575:Generated_Source\PSoC5/Driver3.c ****     {
 576:Generated_Source\PSoC5/Driver3.c ****         if(row < 8u)
 471              		.loc 1 576 0
 472 0004 0728     		cmp	r0, #7
 473 0006 07D8     		bhi	.L43
 474              	.LVL57:
 577:Generated_Source\PSoC5/Driver3.c ****         {
 578:Generated_Source\PSoC5/Driver3.c ****             rowSeg = row;
 579:Generated_Source\PSoC5/Driver3.c ****             #if(Driver3_SEG_DRIVE == Driver3_HIGH)
 580:Generated_Source\PSoC5/Driver3.c ****                 Driver3_segLBuffer[column] |= ((uint8)((uint8)0x01u << rowSeg));
 581:Generated_Source\PSoC5/Driver3.c ****             #else
 582:Generated_Source\PSoC5/Driver3.c ****                 Driver3_segLBuffer[column] &= ((uint8)~((uint8)((uint8)0x01u << rowSeg)));
 475              		.loc 1 582 0
 476 0008 0123     		movs	r3, #1
 477 000a 03FA00F0 		lsl	r0, r3, r0
 478              	.LVL58:
 479 000e 034A     		ldr	r2, .L45
 480 0010 535C     		ldrb	r3, [r2, r1]	@ zero_extendqisi2
 481 0012 23EA0000 		bic	r0, r3, r0
 482 0016 5054     		strb	r0, [r2, r1]
 483              	.LVL59:
ARM GAS  C:\Users\tmj32\AppData\Local\Temp\cchH8kkE.s 			page 20


 484              	.L43:
 485 0018 7047     		bx	lr
 486              	.L46:
 487 001a 00BF     		.align	2
 488              	.L45:
 489 001c 00000000 		.word	Driver3_segLBuffer
 490              		.cfi_endproc
 491              	.LFE8:
 492              		.size	Driver3_SetRC, .-Driver3_SetRC
 493              		.section	.text.Driver3_ClearRC,"ax",%progbits
 494              		.align	2
 495              		.global	Driver3_ClearRC
 496              		.thumb
 497              		.thumb_func
 498              		.type	Driver3_ClearRC, %function
 499              	Driver3_ClearRC:
 500              	.LFB9:
 583:Generated_Source\PSoC5/Driver3.c ****             #endif /* Driver3_SEG_DRIVE == Driver3_HIGH */
 584:Generated_Source\PSoC5/Driver3.c ****         }
 585:Generated_Source\PSoC5/Driver3.c ****         else if (row < 16u)
 586:Generated_Source\PSoC5/Driver3.c ****         {
 587:Generated_Source\PSoC5/Driver3.c ****             #if (Driver3_NUM_SEG > 8u) 
 588:Generated_Source\PSoC5/Driver3.c ****                 rowSeg = row - 8u;
 589:Generated_Source\PSoC5/Driver3.c ****                 #if(Driver3_SEG_DRIVE == Driver3_HIGH)
 590:Generated_Source\PSoC5/Driver3.c ****                     Driver3_segMBuffer[column] |= ((uint8)((uint8)0x01u << rowSeg));
 591:Generated_Source\PSoC5/Driver3.c ****                 #else
 592:Generated_Source\PSoC5/Driver3.c ****                     Driver3_segMBuffer[column] &= ((uint8)~((uint8)((uint8)0x01u << rowSeg)));
 593:Generated_Source\PSoC5/Driver3.c ****                 #endif /* Driver3_SEG_DRIVE == Driver3_HIGH */
 594:Generated_Source\PSoC5/Driver3.c ****             #endif /* (Driver3_NUM_SEG > 8u) */
 595:Generated_Source\PSoC5/Driver3.c ****         }
 596:Generated_Source\PSoC5/Driver3.c ****         else
 597:Generated_Source\PSoC5/Driver3.c ****         {
 598:Generated_Source\PSoC5/Driver3.c ****             #if (Driver3_NUM_SEG > 16u)
 599:Generated_Source\PSoC5/Driver3.c ****                 rowSeg = row - 16u;
 600:Generated_Source\PSoC5/Driver3.c ****                 #if(Driver3_SEG_DRIVE == Driver3_HIGH)
 601:Generated_Source\PSoC5/Driver3.c ****                     Driver3_segHBuffer[column] |= ((uint8)((uint8)0x01u << rowSeg));
 602:Generated_Source\PSoC5/Driver3.c ****                 #else
 603:Generated_Source\PSoC5/Driver3.c ****                     Driver3_segHBuffer[column] &= ((uint8)~((uint8)((uint8)0x01u << rowSeg)));
 604:Generated_Source\PSoC5/Driver3.c ****                 #endif /* Driver3_SEG_DRIVE == Driver3_HIGH */
 605:Generated_Source\PSoC5/Driver3.c ****             #endif /* (Driver3_NUM_SEG > 16u) */
 606:Generated_Source\PSoC5/Driver3.c ****         }
 607:Generated_Source\PSoC5/Driver3.c ****     }
 608:Generated_Source\PSoC5/Driver3.c **** }
 609:Generated_Source\PSoC5/Driver3.c **** 
 610:Generated_Source\PSoC5/Driver3.c **** 
 611:Generated_Source\PSoC5/Driver3.c **** /*******************************************************************************
 612:Generated_Source\PSoC5/Driver3.c **** * Function Name: Driver3_ClearRC
 613:Generated_Source\PSoC5/Driver3.c **** ********************************************************************************
 614:Generated_Source\PSoC5/Driver3.c **** *
 615:Generated_Source\PSoC5/Driver3.c **** * Summary:
 616:Generated_Source\PSoC5/Driver3.c **** *  Clears the bit in the display RAM corresponding to the LED in the designated
 617:Generated_Source\PSoC5/Driver3.c **** *  row and column.
 618:Generated_Source\PSoC5/Driver3.c **** *
 619:Generated_Source\PSoC5/Driver3.c **** * Parameters:
 620:Generated_Source\PSoC5/Driver3.c **** *  uint8 row: Row value 0 to 23.
 621:Generated_Source\PSoC5/Driver3.c **** *  uint8 col: Column between 0 and 7.
 622:Generated_Source\PSoC5/Driver3.c **** *
ARM GAS  C:\Users\tmj32\AppData\Local\Temp\cchH8kkE.s 			page 21


 623:Generated_Source\PSoC5/Driver3.c **** * Return:
 624:Generated_Source\PSoC5/Driver3.c **** *  None
 625:Generated_Source\PSoC5/Driver3.c **** *
 626:Generated_Source\PSoC5/Driver3.c **** * Side effects:
 627:Generated_Source\PSoC5/Driver3.c **** *  None
 628:Generated_Source\PSoC5/Driver3.c **** *
 629:Generated_Source\PSoC5/Driver3.c **** *******************************************************************************/
 630:Generated_Source\PSoC5/Driver3.c **** void Driver3_ClearRC(uint8 row, uint8 column) 
 631:Generated_Source\PSoC5/Driver3.c **** {
 501              		.loc 1 631 0
 502              		.cfi_startproc
 503              		@ args = 0, pretend = 0, frame = 0
 504              		@ frame_needed = 0, uses_anonymous_args = 0
 505              		@ link register save eliminated.
 506              	.LVL60:
 632:Generated_Source\PSoC5/Driver3.c ****     uint8 rowSeg;
 633:Generated_Source\PSoC5/Driver3.c ****     uint8 rowSelect;
 634:Generated_Source\PSoC5/Driver3.c ****     
 635:Generated_Source\PSoC5/Driver3.c ****     if(column < Driver3_NUM_COM)
 507              		.loc 1 635 0
 508 0000 0329     		cmp	r1, #3
 509 0002 09D8     		bhi	.L47
 636:Generated_Source\PSoC5/Driver3.c ****     {
 637:Generated_Source\PSoC5/Driver3.c ****         if(row < 8u)
 510              		.loc 1 637 0
 511 0004 0728     		cmp	r0, #7
 512 0006 07D8     		bhi	.L47
 513              	.LVL61:
 638:Generated_Source\PSoC5/Driver3.c ****         {
 639:Generated_Source\PSoC5/Driver3.c ****             rowSeg = row;
 640:Generated_Source\PSoC5/Driver3.c ****             rowSelect = ((uint8)((uint8)0x01u << rowSeg));
 514              		.loc 1 640 0
 515 0008 0123     		movs	r3, #1
 516 000a 03FA00F0 		lsl	r0, r3, r0
 517              	.LVL62:
 518 000e C0B2     		uxtb	r0, r0
 519              	.LVL63:
 641:Generated_Source\PSoC5/Driver3.c ****             #if(Driver3_SEG_DRIVE == Driver3_HIGH)
 642:Generated_Source\PSoC5/Driver3.c ****                 Driver3_segLBuffer[column] &= ((uint8)(~(uint8)rowSelect));
 643:Generated_Source\PSoC5/Driver3.c ****             #else
 644:Generated_Source\PSoC5/Driver3.c ****                 Driver3_segLBuffer[column] |= rowSelect;
 520              		.loc 1 644 0
 521 0010 024A     		ldr	r2, .L49
 522 0012 535C     		ldrb	r3, [r2, r1]	@ zero_extendqisi2
 523 0014 1843     		orrs	r0, r0, r3
 524              	.LVL64:
 525 0016 5054     		strb	r0, [r2, r1]
 526              	.LVL65:
 527              	.L47:
 528 0018 7047     		bx	lr
 529              	.L50:
 530 001a 00BF     		.align	2
 531              	.L49:
 532 001c 00000000 		.word	Driver3_segLBuffer
 533              		.cfi_endproc
 534              	.LFE9:
 535              		.size	Driver3_ClearRC, .-Driver3_ClearRC
ARM GAS  C:\Users\tmj32\AppData\Local\Temp\cchH8kkE.s 			page 22


 536              		.section	.text.Driver3_ToggleRC,"ax",%progbits
 537              		.align	2
 538              		.global	Driver3_ToggleRC
 539              		.thumb
 540              		.thumb_func
 541              		.type	Driver3_ToggleRC, %function
 542              	Driver3_ToggleRC:
 543              	.LFB10:
 645:Generated_Source\PSoC5/Driver3.c ****             #endif /* Driver3_SEG_DRIVE == Driver3_HIGH */
 646:Generated_Source\PSoC5/Driver3.c ****         }    
 647:Generated_Source\PSoC5/Driver3.c ****         else if (row < 16u)
 648:Generated_Source\PSoC5/Driver3.c ****         {
 649:Generated_Source\PSoC5/Driver3.c ****             #if (Driver3_NUM_SEG > 8u) 
 650:Generated_Source\PSoC5/Driver3.c ****                 rowSeg = row - 8u;
 651:Generated_Source\PSoC5/Driver3.c ****                 rowSelect = ((uint8)((uint8)0x01u << rowSeg));
 652:Generated_Source\PSoC5/Driver3.c ****                 #if(Driver3_SEG_DRIVE == Driver3_HIGH)
 653:Generated_Source\PSoC5/Driver3.c ****                     Driver3_segMBuffer[column] &= ((uint8)(~(uint8)rowSelect));
 654:Generated_Source\PSoC5/Driver3.c ****                 #else
 655:Generated_Source\PSoC5/Driver3.c ****                     Driver3_segMBuffer[column] |= rowSelect;
 656:Generated_Source\PSoC5/Driver3.c ****                 #endif /* Driver3_SEG_DRIVE == Driver3_HIGH */
 657:Generated_Source\PSoC5/Driver3.c ****             #endif /* (Driver3_NUM_SEG > 8u) */
 658:Generated_Source\PSoC5/Driver3.c ****         }
 659:Generated_Source\PSoC5/Driver3.c ****         else
 660:Generated_Source\PSoC5/Driver3.c ****         {
 661:Generated_Source\PSoC5/Driver3.c ****             #if (Driver3_NUM_SEG > 16u)
 662:Generated_Source\PSoC5/Driver3.c ****                 rowSeg = row - 16u;
 663:Generated_Source\PSoC5/Driver3.c ****                 rowSelect = ((uint8)((uint8)0x01u << rowSeg));
 664:Generated_Source\PSoC5/Driver3.c ****                 #if(Driver3_SEG_DRIVE == Driver3_HIGH)
 665:Generated_Source\PSoC5/Driver3.c ****                     Driver3_segHBuffer[column] &= ((uint8)(~(uint8)rowSelect));
 666:Generated_Source\PSoC5/Driver3.c ****                 #else
 667:Generated_Source\PSoC5/Driver3.c ****                     Driver3_segHBuffer[column] |= rowSelect;
 668:Generated_Source\PSoC5/Driver3.c ****                 #endif /* Driver3_SEG_DRIVE == Driver3_HIGH */
 669:Generated_Source\PSoC5/Driver3.c ****             #endif /* (Driver3_NUM_SEG > 16u) */
 670:Generated_Source\PSoC5/Driver3.c ****         }
 671:Generated_Source\PSoC5/Driver3.c ****     }
 672:Generated_Source\PSoC5/Driver3.c **** }
 673:Generated_Source\PSoC5/Driver3.c **** 
 674:Generated_Source\PSoC5/Driver3.c **** 
 675:Generated_Source\PSoC5/Driver3.c **** /*******************************************************************************
 676:Generated_Source\PSoC5/Driver3.c **** * Function Name: Driver3_ToggleRC
 677:Generated_Source\PSoC5/Driver3.c **** ********************************************************************************
 678:Generated_Source\PSoC5/Driver3.c **** *
 679:Generated_Source\PSoC5/Driver3.c **** * Summary:
 680:Generated_Source\PSoC5/Driver3.c **** *  Toggles the bit in the display RAM corresponding to the LED in the designated
 681:Generated_Source\PSoC5/Driver3.c **** *  row and column.
 682:Generated_Source\PSoC5/Driver3.c **** *
 683:Generated_Source\PSoC5/Driver3.c **** * Parameters:
 684:Generated_Source\PSoC5/Driver3.c **** *  uint8 row: Row value 0 to 23.
 685:Generated_Source\PSoC5/Driver3.c **** *  uint8 col: Column between 0 and 7.
 686:Generated_Source\PSoC5/Driver3.c **** *
 687:Generated_Source\PSoC5/Driver3.c **** * Return:
 688:Generated_Source\PSoC5/Driver3.c **** *  None
 689:Generated_Source\PSoC5/Driver3.c **** *
 690:Generated_Source\PSoC5/Driver3.c **** * Side effects:
 691:Generated_Source\PSoC5/Driver3.c **** *  None
 692:Generated_Source\PSoC5/Driver3.c **** *
 693:Generated_Source\PSoC5/Driver3.c **** *******************************************************************************/
ARM GAS  C:\Users\tmj32\AppData\Local\Temp\cchH8kkE.s 			page 23


 694:Generated_Source\PSoC5/Driver3.c **** void Driver3_ToggleRC(uint8 row, uint8 column) 
 695:Generated_Source\PSoC5/Driver3.c **** {
 544              		.loc 1 695 0
 545              		.cfi_startproc
 546              		@ args = 0, pretend = 0, frame = 0
 547              		@ frame_needed = 0, uses_anonymous_args = 0
 548              		@ link register save eliminated.
 549              	.LVL66:
 696:Generated_Source\PSoC5/Driver3.c ****     uint8 rowSeg;
 697:Generated_Source\PSoC5/Driver3.c ****     
 698:Generated_Source\PSoC5/Driver3.c ****     if(column < Driver3_NUM_COM)
 550              		.loc 1 698 0
 551 0000 0329     		cmp	r1, #3
 552 0002 08D8     		bhi	.L51
 699:Generated_Source\PSoC5/Driver3.c ****     {
 700:Generated_Source\PSoC5/Driver3.c ****         if(row < 8u)
 553              		.loc 1 700 0
 554 0004 0728     		cmp	r0, #7
 555 0006 06D8     		bhi	.L51
 556              	.LVL67:
 701:Generated_Source\PSoC5/Driver3.c ****         {
 702:Generated_Source\PSoC5/Driver3.c ****             rowSeg = row;
 703:Generated_Source\PSoC5/Driver3.c ****             Driver3_segLBuffer[column] ^= ((uint8)((uint8)0x01u << rowSeg));
 557              		.loc 1 703 0
 558 0008 0123     		movs	r3, #1
 559 000a 03FA00F0 		lsl	r0, r3, r0
 560              	.LVL68:
 561 000e 024B     		ldr	r3, .L53
 562 0010 5A5C     		ldrb	r2, [r3, r1]	@ zero_extendqisi2
 563 0012 5040     		eors	r0, r0, r2
 564 0014 5854     		strb	r0, [r3, r1]
 565              	.LVL69:
 566              	.L51:
 567 0016 7047     		bx	lr
 568              	.L54:
 569              		.align	2
 570              	.L53:
 571 0018 00000000 		.word	Driver3_segLBuffer
 572              		.cfi_endproc
 573              	.LFE10:
 574              		.size	Driver3_ToggleRC, .-Driver3_ToggleRC
 575              		.section	.text.Driver3_GetRC,"ax",%progbits
 576              		.align	2
 577              		.global	Driver3_GetRC
 578              		.thumb
 579              		.thumb_func
 580              		.type	Driver3_GetRC, %function
 581              	Driver3_GetRC:
 582              	.LFB11:
 704:Generated_Source\PSoC5/Driver3.c ****         }    
 705:Generated_Source\PSoC5/Driver3.c ****         else if (row < 16u)
 706:Generated_Source\PSoC5/Driver3.c ****         {
 707:Generated_Source\PSoC5/Driver3.c ****             #if (Driver3_NUM_SEG > 8u)
 708:Generated_Source\PSoC5/Driver3.c ****                 rowSeg = row - 8u;
 709:Generated_Source\PSoC5/Driver3.c ****                 Driver3_segMBuffer[column] ^= ((uint8)((uint8)0x01u << rowSeg));
 710:Generated_Source\PSoC5/Driver3.c ****             #endif /* (Driver3_NUM_SEG > 8u) */
 711:Generated_Source\PSoC5/Driver3.c ****         } 
ARM GAS  C:\Users\tmj32\AppData\Local\Temp\cchH8kkE.s 			page 24


 712:Generated_Source\PSoC5/Driver3.c ****         else
 713:Generated_Source\PSoC5/Driver3.c ****         {
 714:Generated_Source\PSoC5/Driver3.c ****             #if (Driver3_NUM_SEG > 16u)
 715:Generated_Source\PSoC5/Driver3.c ****                 rowSeg = row - 16u;
 716:Generated_Source\PSoC5/Driver3.c ****                 Driver3_segHBuffer[column] ^= ((uint8)((uint8)0x01u << rowSeg));
 717:Generated_Source\PSoC5/Driver3.c ****             #endif /* (Driver3_NUM_SEG > 16u) */
 718:Generated_Source\PSoC5/Driver3.c ****         }
 719:Generated_Source\PSoC5/Driver3.c ****     }
 720:Generated_Source\PSoC5/Driver3.c **** }
 721:Generated_Source\PSoC5/Driver3.c **** 
 722:Generated_Source\PSoC5/Driver3.c **** 
 723:Generated_Source\PSoC5/Driver3.c **** /*******************************************************************************
 724:Generated_Source\PSoC5/Driver3.c **** * Function Name: Driver3_GetRC
 725:Generated_Source\PSoC5/Driver3.c **** ********************************************************************************
 726:Generated_Source\PSoC5/Driver3.c **** *
 727:Generated_Source\PSoC5/Driver3.c **** * Summary:
 728:Generated_Source\PSoC5/Driver3.c **** *  Returns the bit value in the display RAM corresponding to the LED in the
 729:Generated_Source\PSoC5/Driver3.c **** *  designated row and column.
 730:Generated_Source\PSoC5/Driver3.c **** *
 731:Generated_Source\PSoC5/Driver3.c **** * Parameters:
 732:Generated_Source\PSoC5/Driver3.c **** *  uint8 row: Row value 0 to 23.
 733:Generated_Source\PSoC5/Driver3.c **** *  uint8 col: Column between 0 and 7.
 734:Generated_Source\PSoC5/Driver3.c **** *
 735:Generated_Source\PSoC5/Driver3.c **** * Return:
 736:Generated_Source\PSoC5/Driver3.c **** *  uint8 - bit value of the display RAM at the corresponding row and column. 
 737:Generated_Source\PSoC5/Driver3.c **** *
 738:Generated_Source\PSoC5/Driver3.c **** * Side effects:
 739:Generated_Source\PSoC5/Driver3.c **** *  None
 740:Generated_Source\PSoC5/Driver3.c **** *
 741:Generated_Source\PSoC5/Driver3.c **** *******************************************************************************/
 742:Generated_Source\PSoC5/Driver3.c **** uint8 Driver3_GetRC(uint8 row, uint8 column) 
 743:Generated_Source\PSoC5/Driver3.c **** {
 583              		.loc 1 743 0
 584              		.cfi_startproc
 585              		@ args = 0, pretend = 0, frame = 0
 586              		@ frame_needed = 0, uses_anonymous_args = 0
 587              		@ link register save eliminated.
 588              	.LVL70:
 744:Generated_Source\PSoC5/Driver3.c ****     uint8 valueRC = 0u;
 745:Generated_Source\PSoC5/Driver3.c ****     uint8 rowSeg;
 746:Generated_Source\PSoC5/Driver3.c ****     uint8 rowSegSelect = 0u;
 747:Generated_Source\PSoC5/Driver3.c ****     
 748:Generated_Source\PSoC5/Driver3.c ****     if(column < Driver3_NUM_COM)
 589              		.loc 1 748 0
 590 0000 0329     		cmp	r1, #3
 591 0002 0DD8     		bhi	.L58
 749:Generated_Source\PSoC5/Driver3.c ****     {
 750:Generated_Source\PSoC5/Driver3.c ****         if(row < 8u)
 592              		.loc 1 750 0
 593 0004 0728     		cmp	r0, #7
 594 0006 05D8     		bhi	.L59
 595              	.LVL71:
 751:Generated_Source\PSoC5/Driver3.c ****         {
 752:Generated_Source\PSoC5/Driver3.c ****             rowSeg = row;
 753:Generated_Source\PSoC5/Driver3.c ****             rowSegSelect = (uint8)((uint8)Driver3_segLBuffer[column] >> rowSeg);
 596              		.loc 1 753 0
 597 0008 064B     		ldr	r3, .L60
ARM GAS  C:\Users\tmj32\AppData\Local\Temp\cchH8kkE.s 			page 25


 598 000a 5B5C     		ldrb	r3, [r3, r1]	@ zero_extendqisi2
 599 000c 43FA00F0 		asr	r0, r3, r0
 600              	.LVL72:
 601 0010 C0B2     		uxtb	r0, r0
 602              	.LVL73:
 603 0012 00E0     		b	.L57
 604              	.LVL74:
 605              	.L59:
 746:Generated_Source\PSoC5/Driver3.c ****     
 606              		.loc 1 746 0
 607 0014 0020     		movs	r0, #0
 608              	.LVL75:
 609              	.L57:
 754:Generated_Source\PSoC5/Driver3.c ****         }    
 755:Generated_Source\PSoC5/Driver3.c ****         else if (row < 16u)
 756:Generated_Source\PSoC5/Driver3.c ****         {
 757:Generated_Source\PSoC5/Driver3.c ****             #if (Driver3_NUM_SEG > 8u) 
 758:Generated_Source\PSoC5/Driver3.c ****                 rowSeg = row - 8u;
 759:Generated_Source\PSoC5/Driver3.c ****                 rowSegSelect = (uint8)((uint8)Driver3_segMBuffer[column] >> rowSeg);
 760:Generated_Source\PSoC5/Driver3.c ****             #endif /* (Driver3_NUM_SEG > 8u) */
 761:Generated_Source\PSoC5/Driver3.c ****         }
 762:Generated_Source\PSoC5/Driver3.c ****         else
 763:Generated_Source\PSoC5/Driver3.c ****         {
 764:Generated_Source\PSoC5/Driver3.c ****             #if (Driver3_NUM_SEG > 16u)
 765:Generated_Source\PSoC5/Driver3.c ****                 rowSeg = row - 16u;
 766:Generated_Source\PSoC5/Driver3.c ****                 rowSegSelect = (uint8)((uint8)Driver3_segHBuffer[column] >> rowSeg);
 767:Generated_Source\PSoC5/Driver3.c ****             #endif /* (Driver3_NUM_SEG > 16u) */
 768:Generated_Source\PSoC5/Driver3.c ****         }
 769:Generated_Source\PSoC5/Driver3.c ****         
 770:Generated_Source\PSoC5/Driver3.c ****         #if(Driver3_SEG_DRIVE == Driver3_HIGH)
 771:Generated_Source\PSoC5/Driver3.c ****             valueRC = (uint8)((uint8)rowSegSelect & 0x01u);
 772:Generated_Source\PSoC5/Driver3.c ****         #else
 773:Generated_Source\PSoC5/Driver3.c ****             valueRC = (uint8)((uint8)((uint8)~rowSegSelect) & 0x01u);
 610              		.loc 1 773 0
 611 0016 80F00100 		eor	r0, r0, #1
 612              	.LVL76:
 613 001a 00F00100 		and	r0, r0, #1
 614              	.LVL77:
 615 001e 7047     		bx	lr
 616              	.LVL78:
 617              	.L58:
 744:Generated_Source\PSoC5/Driver3.c ****     uint8 rowSeg;
 618              		.loc 1 744 0
 619 0020 0020     		movs	r0, #0
 620              	.LVL79:
 774:Generated_Source\PSoC5/Driver3.c ****         #endif /* Driver3_SEG_DRIVE == Driver3_HIGH */
 775:Generated_Source\PSoC5/Driver3.c ****     }
 776:Generated_Source\PSoC5/Driver3.c ****     
 777:Generated_Source\PSoC5/Driver3.c ****     return(valueRC);
 778:Generated_Source\PSoC5/Driver3.c **** }
 621              		.loc 1 778 0
 622 0022 7047     		bx	lr
 623              	.L61:
 624              		.align	2
 625              	.L60:
 626 0024 00000000 		.word	Driver3_segLBuffer
 627              		.cfi_endproc
ARM GAS  C:\Users\tmj32\AppData\Local\Temp\cchH8kkE.s 			page 26


 628              	.LFE11:
 629              		.size	Driver3_GetRC, .-Driver3_GetRC
 630              		.section	.text.Driver3_ClearDisplay,"ax",%progbits
 631              		.align	2
 632              		.global	Driver3_ClearDisplay
 633              		.thumb
 634              		.thumb_func
 635              		.type	Driver3_ClearDisplay, %function
 636              	Driver3_ClearDisplay:
 637              	.LFB12:
 779:Generated_Source\PSoC5/Driver3.c **** 
 780:Generated_Source\PSoC5/Driver3.c **** 
 781:Generated_Source\PSoC5/Driver3.c **** /*******************************************************************************
 782:Generated_Source\PSoC5/Driver3.c **** * Function Name: Driver3_ClearDisplay
 783:Generated_Source\PSoC5/Driver3.c **** ********************************************************************************
 784:Generated_Source\PSoC5/Driver3.c **** *
 785:Generated_Source\PSoC5/Driver3.c **** * Summary:
 786:Generated_Source\PSoC5/Driver3.c **** *  Clears the display (disables all the LEDs) for the associated position by
 787:Generated_Source\PSoC5/Driver3.c **** *  setting the display RAM to zero.
 788:Generated_Source\PSoC5/Driver3.c **** *
 789:Generated_Source\PSoC5/Driver3.c **** * Parameters:
 790:Generated_Source\PSoC5/Driver3.c **** *  uint8 position: The digit position to clear.
 791:Generated_Source\PSoC5/Driver3.c **** *
 792:Generated_Source\PSoC5/Driver3.c **** * Return:
 793:Generated_Source\PSoC5/Driver3.c **** *  None
 794:Generated_Source\PSoC5/Driver3.c **** *
 795:Generated_Source\PSoC5/Driver3.c **** * Side effects:
 796:Generated_Source\PSoC5/Driver3.c **** *  None
 797:Generated_Source\PSoC5/Driver3.c **** *
 798:Generated_Source\PSoC5/Driver3.c **** *******************************************************************************/
 799:Generated_Source\PSoC5/Driver3.c **** void Driver3_ClearDisplay(uint8 position) 
 800:Generated_Source\PSoC5/Driver3.c **** {  
 638              		.loc 1 800 0
 639              		.cfi_startproc
 640              		@ args = 0, pretend = 0, frame = 0
 641              		@ frame_needed = 0, uses_anonymous_args = 0
 642              		@ link register save eliminated.
 643              	.LVL80:
 801:Generated_Source\PSoC5/Driver3.c ****     uint8 relPosition;
 802:Generated_Source\PSoC5/Driver3.c ****     
 803:Generated_Source\PSoC5/Driver3.c ****     if(position < Driver3_NUM_COM)
 644              		.loc 1 803 0
 645 0000 0328     		cmp	r0, #3
 646 0002 02D8     		bhi	.L62
 647              	.LVL81:
 804:Generated_Source\PSoC5/Driver3.c ****     {
 805:Generated_Source\PSoC5/Driver3.c ****         relPosition = position;
 806:Generated_Source\PSoC5/Driver3.c ****         Driver3_segLBuffer[relPosition] = Driver3_CLEAR;
 648              		.loc 1 806 0
 649 0004 FF22     		movs	r2, #255
 650 0006 014B     		ldr	r3, .L64
 651 0008 1A54     		strb	r2, [r3, r0]
 652              	.LVL82:
 653              	.L62:
 654 000a 7047     		bx	lr
 655              	.L65:
 656              		.align	2
ARM GAS  C:\Users\tmj32\AppData\Local\Temp\cchH8kkE.s 			page 27


 657              	.L64:
 658 000c 00000000 		.word	Driver3_segLBuffer
 659              		.cfi_endproc
 660              	.LFE12:
 661              		.size	Driver3_ClearDisplay, .-Driver3_ClearDisplay
 662              		.section	.text.Driver3_ClearDisplayAll,"ax",%progbits
 663              		.align	2
 664              		.global	Driver3_ClearDisplayAll
 665              		.thumb
 666              		.thumb_func
 667              		.type	Driver3_ClearDisplayAll, %function
 668              	Driver3_ClearDisplayAll:
 669              	.LFB13:
 807:Generated_Source\PSoC5/Driver3.c ****     }    
 808:Generated_Source\PSoC5/Driver3.c ****     else if (position < Driver3_TWO_NUM_COM)
 809:Generated_Source\PSoC5/Driver3.c ****     {
 810:Generated_Source\PSoC5/Driver3.c ****         #if (Driver3_NUM_SEG > 8u)
 811:Generated_Source\PSoC5/Driver3.c ****             relPosition = position - Driver3_NUM_COM;
 812:Generated_Source\PSoC5/Driver3.c ****             Driver3_segMBuffer[relPosition] = Driver3_CLEAR;
 813:Generated_Source\PSoC5/Driver3.c ****         #endif /* (Driver3_NUM_SEG > 8u) */
 814:Generated_Source\PSoC5/Driver3.c ****     }
 815:Generated_Source\PSoC5/Driver3.c ****     else
 816:Generated_Source\PSoC5/Driver3.c ****     {
 817:Generated_Source\PSoC5/Driver3.c ****         #if (Driver3_NUM_SEG > 16u)
 818:Generated_Source\PSoC5/Driver3.c ****             relPosition = position - Driver3_TWO_NUM_COM;
 819:Generated_Source\PSoC5/Driver3.c ****             if(relPosition < Driver3_NUM_COM)
 820:Generated_Source\PSoC5/Driver3.c ****             {
 821:Generated_Source\PSoC5/Driver3.c ****                 Driver3_segHBuffer[relPosition] = Driver3_CLEAR;
 822:Generated_Source\PSoC5/Driver3.c ****             }
 823:Generated_Source\PSoC5/Driver3.c ****         #endif /* (Driver3_NUM_SEG > 16u) */
 824:Generated_Source\PSoC5/Driver3.c ****     }
 825:Generated_Source\PSoC5/Driver3.c **** }
 826:Generated_Source\PSoC5/Driver3.c **** 
 827:Generated_Source\PSoC5/Driver3.c **** 
 828:Generated_Source\PSoC5/Driver3.c **** /*******************************************************************************
 829:Generated_Source\PSoC5/Driver3.c **** * Function Name: Driver3_ClearDisplayAll
 830:Generated_Source\PSoC5/Driver3.c **** ********************************************************************************
 831:Generated_Source\PSoC5/Driver3.c **** *
 832:Generated_Source\PSoC5/Driver3.c **** * Summary:
 833:Generated_Source\PSoC5/Driver3.c **** *  Clears the entire display by writing zeros to all the display RAM locations.
 834:Generated_Source\PSoC5/Driver3.c **** *
 835:Generated_Source\PSoC5/Driver3.c **** * Parameters:
 836:Generated_Source\PSoC5/Driver3.c **** *  None
 837:Generated_Source\PSoC5/Driver3.c **** *
 838:Generated_Source\PSoC5/Driver3.c **** * Return:
 839:Generated_Source\PSoC5/Driver3.c **** *  None
 840:Generated_Source\PSoC5/Driver3.c **** *
 841:Generated_Source\PSoC5/Driver3.c **** * Side effects:
 842:Generated_Source\PSoC5/Driver3.c **** *  None
 843:Generated_Source\PSoC5/Driver3.c **** *
 844:Generated_Source\PSoC5/Driver3.c **** *******************************************************************************/
 845:Generated_Source\PSoC5/Driver3.c **** void Driver3_ClearDisplayAll(void) 
 846:Generated_Source\PSoC5/Driver3.c **** {
 670              		.loc 1 846 0
 671              		.cfi_startproc
 672              		@ args = 0, pretend = 0, frame = 0
 673              		@ frame_needed = 0, uses_anonymous_args = 0
ARM GAS  C:\Users\tmj32\AppData\Local\Temp\cchH8kkE.s 			page 28


 674              		@ link register save eliminated.
 675              	.LVL83:
 847:Generated_Source\PSoC5/Driver3.c ****     uint8 position;
 848:Generated_Source\PSoC5/Driver3.c ****     
 849:Generated_Source\PSoC5/Driver3.c ****     for(position = 0u; position < Driver3_NUM_COM; position++)
 676              		.loc 1 849 0
 677 0000 0023     		movs	r3, #0
 678 0002 04E0     		b	.L67
 679              	.LVL84:
 680              	.L68:
 850:Generated_Source\PSoC5/Driver3.c ****     {
 851:Generated_Source\PSoC5/Driver3.c ****         Driver3_segLBuffer[position] = Driver3_CLEAR; 
 681              		.loc 1 851 0 discriminator 3
 682 0004 FF21     		movs	r1, #255
 683 0006 034A     		ldr	r2, .L69
 684 0008 D154     		strb	r1, [r2, r3]
 849:Generated_Source\PSoC5/Driver3.c ****     {
 685              		.loc 1 849 0 discriminator 3
 686 000a 0133     		adds	r3, r3, #1
 687              	.LVL85:
 688 000c DBB2     		uxtb	r3, r3
 689              	.LVL86:
 690              	.L67:
 849:Generated_Source\PSoC5/Driver3.c ****     {
 691              		.loc 1 849 0 is_stmt 0 discriminator 1
 692 000e 032B     		cmp	r3, #3
 693 0010 F8D9     		bls	.L68
 852:Generated_Source\PSoC5/Driver3.c ****         
 853:Generated_Source\PSoC5/Driver3.c ****         #if (Driver3_NUM_SEG > 8u) 
 854:Generated_Source\PSoC5/Driver3.c ****             Driver3_segMBuffer[position] = Driver3_CLEAR;
 855:Generated_Source\PSoC5/Driver3.c ****         #endif /* (Driver3_NUM_SEG > 8u) */
 856:Generated_Source\PSoC5/Driver3.c ****         
 857:Generated_Source\PSoC5/Driver3.c ****         #if (Driver3_NUM_SEG > 16u)
 858:Generated_Source\PSoC5/Driver3.c ****             Driver3_segHBuffer[position] = Driver3_CLEAR;
 859:Generated_Source\PSoC5/Driver3.c ****         #endif /* (Driver3_NUM_SEG > 16u) */
 860:Generated_Source\PSoC5/Driver3.c ****     }
 861:Generated_Source\PSoC5/Driver3.c **** }
 694              		.loc 1 861 0 is_stmt 1
 695 0012 7047     		bx	lr
 696              	.L70:
 697              		.align	2
 698              	.L69:
 699 0014 00000000 		.word	Driver3_segLBuffer
 700              		.cfi_endproc
 701              	.LFE13:
 702              		.size	Driver3_ClearDisplayAll, .-Driver3_ClearDisplayAll
 703              		.section	.text.Driver3_Init,"ax",%progbits
 704              		.align	2
 705              		.global	Driver3_Init
 706              		.thumb
 707              		.thumb_func
 708              		.type	Driver3_Init, %function
 709              	Driver3_Init:
 710              	.LFB3:
 363:Generated_Source\PSoC5/Driver3.c ****     static uint8 Driver3_dmaInitDone = 0u;
 711              		.loc 1 363 0
 712              		.cfi_startproc
ARM GAS  C:\Users\tmj32\AppData\Local\Temp\cchH8kkE.s 			page 29


 713              		@ args = 0, pretend = 0, frame = 0
 714              		@ frame_needed = 0, uses_anonymous_args = 0
 715 0000 08B5     		push	{r3, lr}
 716              		.cfi_def_cfa_offset 8
 717              		.cfi_offset 3, -8
 718              		.cfi_offset 14, -4
 370:Generated_Source\PSoC5/Driver3.c ****     
 719              		.loc 1 370 0
 720 0002 FFF7FEFF 		bl	Driver3_ClearDisplayAll
 721              	.LVL87:
 373:Generated_Source\PSoC5/Driver3.c ****     {
 722              		.loc 1 373 0
 723 0006 044B     		ldr	r3, .L74
 724 0008 5B7D     		ldrb	r3, [r3, #21]	@ zero_extendqisi2
 725 000a 23B9     		cbnz	r3, .L71
 375:Generated_Source\PSoC5/Driver3.c ****         Driver3_dmaInitDone = 1u;
 726              		.loc 1 375 0
 727 000c FFF7FEFF 		bl	Driver3_DmaInit
 728              	.LVL88:
 376:Generated_Source\PSoC5/Driver3.c ****     }
 729              		.loc 1 376 0
 730 0010 0122     		movs	r2, #1
 731 0012 014B     		ldr	r3, .L74
 732 0014 5A75     		strb	r2, [r3, #21]
 733              	.L71:
 734 0016 08BD     		pop	{r3, pc}
 735              	.L75:
 736              		.align	2
 737              	.L74:
 738 0018 00000000 		.word	.LANCHOR0
 739              		.cfi_endproc
 740              	.LFE3:
 741              		.size	Driver3_Init, .-Driver3_Init
 742              		.section	.text.Driver3_Start,"ax",%progbits
 743              		.align	2
 744              		.global	Driver3_Start
 745              		.thumb
 746              		.thumb_func
 747              		.type	Driver3_Start, %function
 748              	Driver3_Start:
 749              	.LFB5:
 445:Generated_Source\PSoC5/Driver3.c ****     if(0u == Driver3_initVar)
 750              		.loc 1 445 0
 751              		.cfi_startproc
 752              		@ args = 0, pretend = 0, frame = 0
 753              		@ frame_needed = 0, uses_anonymous_args = 0
 754 0000 08B5     		push	{r3, lr}
 755              		.cfi_def_cfa_offset 8
 756              		.cfi_offset 3, -8
 757              		.cfi_offset 14, -4
 446:Generated_Source\PSoC5/Driver3.c ****     {
 758              		.loc 1 446 0
 759 0002 054B     		ldr	r3, .L79
 760 0004 9B7D     		ldrb	r3, [r3, #22]	@ zero_extendqisi2
 761 0006 23B9     		cbnz	r3, .L77
 448:Generated_Source\PSoC5/Driver3.c ****         Driver3_initVar = 1u;
 762              		.loc 1 448 0
ARM GAS  C:\Users\tmj32\AppData\Local\Temp\cchH8kkE.s 			page 30


 763 0008 FFF7FEFF 		bl	Driver3_Init
 764              	.LVL89:
 449:Generated_Source\PSoC5/Driver3.c ****     }
 765              		.loc 1 449 0
 766 000c 0122     		movs	r2, #1
 767 000e 024B     		ldr	r3, .L79
 768 0010 9A75     		strb	r2, [r3, #22]
 769              	.L77:
 452:Generated_Source\PSoC5/Driver3.c **** }
 770              		.loc 1 452 0
 771 0012 FFF7FEFF 		bl	Driver3_Enable
 772              	.LVL90:
 773 0016 08BD     		pop	{r3, pc}
 774              	.L80:
 775              		.align	2
 776              	.L79:
 777 0018 00000000 		.word	.LANCHOR0
 778              		.cfi_endproc
 779              	.LFE5:
 780              		.size	Driver3_Start, .-Driver3_Start
 781              		.section	.text.Driver3_Stop,"ax",%progbits
 782              		.align	2
 783              		.global	Driver3_Stop
 784              		.thumb
 785              		.thumb_func
 786              		.type	Driver3_Stop, %function
 787              	Driver3_Stop:
 788              	.LFB6:
 475:Generated_Source\PSoC5/Driver3.c ****     #if (Driver3_BRIGHTNESS_EN == Driver3_ENABLED)
 789              		.loc 1 475 0
 790              		.cfi_startproc
 791              		@ args = 0, pretend = 0, frame = 0
 792              		@ frame_needed = 0, uses_anonymous_args = 0
 793 0000 08B5     		push	{r3, lr}
 794              		.cfi_def_cfa_offset 8
 795              		.cfi_offset 3, -8
 796              		.cfi_offset 14, -4
 481:Generated_Source\PSoC5/Driver3.c ****     Driver3_ClearDisplayAll();
 797              		.loc 1 481 0
 798 0002 FFF7FEFF 		bl	Driver3_DmaDisable
 799              	.LVL91:
 482:Generated_Source\PSoC5/Driver3.c ****     
 800              		.loc 1 482 0
 801 0006 FFF7FEFF 		bl	Driver3_ClearDisplayAll
 802              	.LVL92:
 484:Generated_Source\PSoC5/Driver3.c **** }
 803              		.loc 1 484 0
 804 000a 0022     		movs	r2, #0
 805 000c 014B     		ldr	r3, .L83
 806 000e 1A75     		strb	r2, [r3, #20]
 807 0010 08BD     		pop	{r3, pc}
 808              	.L84:
 809 0012 00BF     		.align	2
 810              	.L83:
 811 0014 00000000 		.word	.LANCHOR0
 812              		.cfi_endproc
 813              	.LFE6:
ARM GAS  C:\Users\tmj32\AppData\Local\Temp\cchH8kkE.s 			page 31


 814              		.size	Driver3_Stop, .-Driver3_Stop
 815              		.section	.text.Driver3_PutDecimalPoint,"ax",%progbits
 816              		.align	2
 817              		.global	Driver3_PutDecimalPoint
 818              		.thumb
 819              		.thumb_func
 820              		.type	Driver3_PutDecimalPoint, %function
 821              	Driver3_PutDecimalPoint:
 822              	.LFB32:
 862:Generated_Source\PSoC5/Driver3.c **** 
 863:Generated_Source\PSoC5/Driver3.c **** 
 864:Generated_Source\PSoC5/Driver3.c **** /*******************************************************************************
 865:Generated_Source\PSoC5/Driver3.c **** * Function Name: Driver3_Write7SegNumberDec
 866:Generated_Source\PSoC5/Driver3.c **** ********************************************************************************
 867:Generated_Source\PSoC5/Driver3.c **** *
 868:Generated_Source\PSoC5/Driver3.c **** * Summary:
 869:Generated_Source\PSoC5/Driver3.c **** *  Displays a signed integer up to 8 characters long, starting at 'position' 
 870:Generated_Source\PSoC5/Driver3.c **** *  and extending for 'digits' characters. The negative sign will consume one 
 871:Generated_Source\PSoC5/Driver3.c **** *  digit if it is required. If you do not use the correct number of digits for
 872:Generated_Source\PSoC5/Driver3.c **** *  your number, the least significant digits will be displayed. For example, 
 873:Generated_Source\PSoC5/Driver3.c **** *  if value is -1234, display is 0 and digits is 4, the result will be: -234.
 874:Generated_Source\PSoC5/Driver3.c **** *
 875:Generated_Source\PSoC5/Driver3.c **** * Parameters:
 876:Generated_Source\PSoC5/Driver3.c **** *  int32 number: a signed integer number to display. It is the responsibility 
 877:Generated_Source\PSoC5/Driver3.c **** *                of the user to ensure that the display has enough digits to 
 878:Generated_Source\PSoC5/Driver3.c **** *                accurately represent the number passed to this function. If 
 879:Generated_Source\PSoC5/Driver3.c **** *                not, the least significant digits will be displayed. Also note
 880:Generated_Source\PSoC5/Driver3.c **** *                that a negative number will require 1 more digit than the
 881:Generated_Source\PSoC5/Driver3.c **** *                equivalent positive number to display the negative sign.
 882:Generated_Source\PSoC5/Driver3.c **** *  uint8 position: Digit position of the Display/Common RAM to start.
 883:Generated_Source\PSoC5/Driver3.c **** *  uint8 digits: The number of digits you wish to use to display the value 
 884:Generated_Source\PSoC5/Driver3.c **** *                passed into the function. The negative sign will consume one 
 885:Generated_Source\PSoC5/Driver3.c **** *                digit if it is required.
 886:Generated_Source\PSoC5/Driver3.c **** *  uint8 alignment: How to align the provided number in the allocated digits.
 887:Generated_Source\PSoC5/Driver3.c **** *       RIGHT_ALIGN - Least significant digit occupies the rightmost digit
 888:Generated_Source\PSoC5/Driver3.c **** *                     (position + digits). Unused digits are turned off unless
 889:Generated_Source\PSoC5/Driver3.c **** *                     ZERO_PAD enabled.
 890:Generated_Source\PSoC5/Driver3.c **** *       LEFT_ALIGN - Most significant digit (or negative sign) occupies the
 891:Generated_Source\PSoC5/Driver3.c **** *                    digit specified by position. Unused digits are turned off.
 892:Generated_Source\PSoC5/Driver3.c **** *       ZERO_PAD - Unused digits to the left are padded with leading zeros.
 893:Generated_Source\PSoC5/Driver3.c **** *
 894:Generated_Source\PSoC5/Driver3.c **** * Return:
 895:Generated_Source\PSoC5/Driver3.c **** *  None
 896:Generated_Source\PSoC5/Driver3.c **** *
 897:Generated_Source\PSoC5/Driver3.c **** * Side effects:
 898:Generated_Source\PSoC5/Driver3.c **** *  None
 899:Generated_Source\PSoC5/Driver3.c **** *
 900:Generated_Source\PSoC5/Driver3.c **** *******************************************************************************/
 901:Generated_Source\PSoC5/Driver3.c **** void Driver3_Write7SegNumberDec(int32 number, uint8 position, uint8 digits, uint8 alignment)
 902:Generated_Source\PSoC5/Driver3.c **** 
 903:Generated_Source\PSoC5/Driver3.c **** {
 904:Generated_Source\PSoC5/Driver3.c ****     uint8 i;
 905:Generated_Source\PSoC5/Driver3.c ****     uint8 relPosition;
 906:Generated_Source\PSoC5/Driver3.c ****     uint8 choiceReg;
 907:Generated_Source\PSoC5/Driver3.c ****     uint8 numberSign;
 908:Generated_Source\PSoC5/Driver3.c ****     uint8 selectVal;
 909:Generated_Source\PSoC5/Driver3.c ****     uint8 zeroCount = 0u;
ARM GAS  C:\Users\tmj32\AppData\Local\Temp\cchH8kkE.s 			page 32


 910:Generated_Source\PSoC5/Driver3.c ****     uint8 bufArray[8u] = {0u};
 911:Generated_Source\PSoC5/Driver3.c ****     uint32 numberVal;
 912:Generated_Source\PSoC5/Driver3.c ****         
 913:Generated_Source\PSoC5/Driver3.c ****     /* Choose to use either the low, mid or high control registers */
 914:Generated_Source\PSoC5/Driver3.c ****     if(position < Driver3_NUM_COM)
 915:Generated_Source\PSoC5/Driver3.c ****     {
 916:Generated_Source\PSoC5/Driver3.c ****         choiceReg = Driver3_SEG_REG_LOW;
 917:Generated_Source\PSoC5/Driver3.c ****         relPosition = position;
 918:Generated_Source\PSoC5/Driver3.c ****     }
 919:Generated_Source\PSoC5/Driver3.c ****     else if (position < Driver3_TWO_NUM_COM)
 920:Generated_Source\PSoC5/Driver3.c ****     {
 921:Generated_Source\PSoC5/Driver3.c ****         choiceReg = Driver3_SEG_REG_MID;
 922:Generated_Source\PSoC5/Driver3.c ****         relPosition = position - Driver3_NUM_COM;
 923:Generated_Source\PSoC5/Driver3.c ****     }
 924:Generated_Source\PSoC5/Driver3.c ****     else
 925:Generated_Source\PSoC5/Driver3.c ****     {
 926:Generated_Source\PSoC5/Driver3.c ****         choiceReg = Driver3_SEG_REG_HIGH;
 927:Generated_Source\PSoC5/Driver3.c ****         relPosition = position - Driver3_TWO_NUM_COM;
 928:Generated_Source\PSoC5/Driver3.c ****     }
 929:Generated_Source\PSoC5/Driver3.c ****     
 930:Generated_Source\PSoC5/Driver3.c ****     /* Routine to extract the sign and to convert to unsigned */
 931:Generated_Source\PSoC5/Driver3.c ****     if(number >= Driver3_ZERO_NEG)
 932:Generated_Source\PSoC5/Driver3.c ****     {
 933:Generated_Source\PSoC5/Driver3.c ****         numberVal = (uint32)number;
 934:Generated_Source\PSoC5/Driver3.c ****         numberSign = Driver3_UNSIGNED;
 935:Generated_Source\PSoC5/Driver3.c ****     }
 936:Generated_Source\PSoC5/Driver3.c ****     else
 937:Generated_Source\PSoC5/Driver3.c ****     {
 938:Generated_Source\PSoC5/Driver3.c ****         numberVal = (uint32)(-number);
 939:Generated_Source\PSoC5/Driver3.c ****         numberSign = Driver3_SIGNED;
 940:Generated_Source\PSoC5/Driver3.c ****     }
 941:Generated_Source\PSoC5/Driver3.c ****     
 942:Generated_Source\PSoC5/Driver3.c ****     /* Fill up the temporary array */
 943:Generated_Source\PSoC5/Driver3.c ****     for(i = digits; i > 0u; i--)
 944:Generated_Source\PSoC5/Driver3.c ****     {
 945:Generated_Source\PSoC5/Driver3.c ****         selectVal = (uint8)(numberVal % 10u);
 946:Generated_Source\PSoC5/Driver3.c ****         bufArray[i-1u] = Driver3_EncodeNumber7Seg(selectVal);
 947:Generated_Source\PSoC5/Driver3.c ****         numberVal = numberVal / 10u;
 948:Generated_Source\PSoC5/Driver3.c ****     }
 949:Generated_Source\PSoC5/Driver3.c ****     
 950:Generated_Source\PSoC5/Driver3.c ****     /* Clean up the array and place sign if needed */
 951:Generated_Source\PSoC5/Driver3.c ****     if(alignment == Driver3_ZERO_PAD)
 952:Generated_Source\PSoC5/Driver3.c ****     {
 953:Generated_Source\PSoC5/Driver3.c ****         if(numberSign == Driver3_SIGNED)
 954:Generated_Source\PSoC5/Driver3.c ****         {
 955:Generated_Source\PSoC5/Driver3.c ****             /* Place sign on the MSB */
 956:Generated_Source\PSoC5/Driver3.c ****             bufArray[0u] = Driver3_EncodeChar7Seg('-');
 957:Generated_Source\PSoC5/Driver3.c ****         }
 958:Generated_Source\PSoC5/Driver3.c ****     }
 959:Generated_Source\PSoC5/Driver3.c ****     else
 960:Generated_Source\PSoC5/Driver3.c ****     {
 961:Generated_Source\PSoC5/Driver3.c ****         for(i = 0u; i < digits; i++)
 962:Generated_Source\PSoC5/Driver3.c ****         {
 963:Generated_Source\PSoC5/Driver3.c ****             if (bufArray[i] != Driver3_ZERO_7CHAR)
 964:Generated_Source\PSoC5/Driver3.c ****             {
 965:Generated_Source\PSoC5/Driver3.c ****                 if(numberSign == Driver3_SIGNED)
 966:Generated_Source\PSoC5/Driver3.c ****                 {
ARM GAS  C:\Users\tmj32\AppData\Local\Temp\cchH8kkE.s 			page 33


 967:Generated_Source\PSoC5/Driver3.c ****                     if(i == 0u)
 968:Generated_Source\PSoC5/Driver3.c ****                     {
 969:Generated_Source\PSoC5/Driver3.c ****                         /* Place sign on the MSB */
 970:Generated_Source\PSoC5/Driver3.c ****                         bufArray[i] = Driver3_EncodeChar7Seg('-');
 971:Generated_Source\PSoC5/Driver3.c ****                     }
 972:Generated_Source\PSoC5/Driver3.c ****                     else
 973:Generated_Source\PSoC5/Driver3.c ****                     {
 974:Generated_Source\PSoC5/Driver3.c ****                         /* Place sign before MSB */
 975:Generated_Source\PSoC5/Driver3.c ****                         bufArray[i-1u] = Driver3_EncodeChar7Seg('-');
 976:Generated_Source\PSoC5/Driver3.c ****                     }
 977:Generated_Source\PSoC5/Driver3.c ****                 }
 978:Generated_Source\PSoC5/Driver3.c ****                 /* Exit when encountering non-zero number */
 979:Generated_Source\PSoC5/Driver3.c ****                 break;
 980:Generated_Source\PSoC5/Driver3.c ****             }
 981:Generated_Source\PSoC5/Driver3.c ****             else
 982:Generated_Source\PSoC5/Driver3.c ****             {
 983:Generated_Source\PSoC5/Driver3.c ****                 if(zeroCount != (digits - 1u))
 984:Generated_Source\PSoC5/Driver3.c ****                 {
 985:Generated_Source\PSoC5/Driver3.c ****                     /* Turn off the display */
 986:Generated_Source\PSoC5/Driver3.c ****                     bufArray[i] = Driver3_CLEAR;
 987:Generated_Source\PSoC5/Driver3.c ****                     zeroCount++;
 988:Generated_Source\PSoC5/Driver3.c ****                 }
 989:Generated_Source\PSoC5/Driver3.c ****             }    
 990:Generated_Source\PSoC5/Driver3.c ****         }
 991:Generated_Source\PSoC5/Driver3.c ****     }
 992:Generated_Source\PSoC5/Driver3.c ****     
 993:Generated_Source\PSoC5/Driver3.c ****     /* Place the values in the segment array according to alignment */
 994:Generated_Source\PSoC5/Driver3.c ****     if(alignment == Driver3_LEFT_ALIGN)
 995:Generated_Source\PSoC5/Driver3.c ****     {
 996:Generated_Source\PSoC5/Driver3.c ****         for(i = 0u; i < digits; i++)
 997:Generated_Source\PSoC5/Driver3.c ****         {
 998:Generated_Source\PSoC5/Driver3.c ****             if(bufArray[i] != Driver3_CLEAR)
 999:Generated_Source\PSoC5/Driver3.c ****             {
1000:Generated_Source\PSoC5/Driver3.c ****                 if(relPosition < Driver3_NUM_COM)
1001:Generated_Source\PSoC5/Driver3.c ****                 {
1002:Generated_Source\PSoC5/Driver3.c ****                     /* Only show displays that are not empty */
1003:Generated_Source\PSoC5/Driver3.c ****                     switch(choiceReg)
1004:Generated_Source\PSoC5/Driver3.c ****                     {
1005:Generated_Source\PSoC5/Driver3.c ****                         case Driver3_SEG_REG_LOW :
1006:Generated_Source\PSoC5/Driver3.c ****                             Driver3_segLBuffer[relPosition] = bufArray[i];
1007:Generated_Source\PSoC5/Driver3.c ****                             break;
1008:Generated_Source\PSoC5/Driver3.c ****                         case Driver3_SEG_REG_MID :
1009:Generated_Source\PSoC5/Driver3.c ****                             #if (Driver3_NUM_SEG > 8u)
1010:Generated_Source\PSoC5/Driver3.c ****                                 Driver3_segMBuffer[relPosition] = bufArray[i];
1011:Generated_Source\PSoC5/Driver3.c ****                             #endif /* (Driver3_NUM_SEG > 8u) */
1012:Generated_Source\PSoC5/Driver3.c ****                             break;
1013:Generated_Source\PSoC5/Driver3.c ****                         case Driver3_SEG_REG_HIGH :
1014:Generated_Source\PSoC5/Driver3.c ****                             #if (Driver3_NUM_SEG > 16u)
1015:Generated_Source\PSoC5/Driver3.c ****                                 Driver3_segHBuffer[relPosition] = bufArray[i];
1016:Generated_Source\PSoC5/Driver3.c ****                             #endif /* (Driver3_NUM_SEG > 16u) */
1017:Generated_Source\PSoC5/Driver3.c ****                             break;
1018:Generated_Source\PSoC5/Driver3.c ****                         default :
1019:Generated_Source\PSoC5/Driver3.c ****                             Driver3_segLBuffer[relPosition] = bufArray[i];
1020:Generated_Source\PSoC5/Driver3.c ****                             break;
1021:Generated_Source\PSoC5/Driver3.c ****                     }
1022:Generated_Source\PSoC5/Driver3.c ****                 }
1023:Generated_Source\PSoC5/Driver3.c ****                 relPosition++;
ARM GAS  C:\Users\tmj32\AppData\Local\Temp\cchH8kkE.s 			page 34


1024:Generated_Source\PSoC5/Driver3.c ****             }
1025:Generated_Source\PSoC5/Driver3.c ****         }
1026:Generated_Source\PSoC5/Driver3.c ****         /* Clear the rest of the positions to the right of value */
1027:Generated_Source\PSoC5/Driver3.c ****         while(relPosition < digits)
1028:Generated_Source\PSoC5/Driver3.c ****         {
1029:Generated_Source\PSoC5/Driver3.c ****             switch(choiceReg)
1030:Generated_Source\PSoC5/Driver3.c ****             {
1031:Generated_Source\PSoC5/Driver3.c ****                 case Driver3_SEG_REG_LOW :
1032:Generated_Source\PSoC5/Driver3.c ****                     Driver3_segLBuffer[relPosition] = Driver3_CLEAR;
1033:Generated_Source\PSoC5/Driver3.c ****                     break;
1034:Generated_Source\PSoC5/Driver3.c ****                 case Driver3_SEG_REG_MID :
1035:Generated_Source\PSoC5/Driver3.c ****                     #if (Driver3_NUM_SEG > 8u)
1036:Generated_Source\PSoC5/Driver3.c ****                         Driver3_segMBuffer[relPosition] = Driver3_CLEAR;
1037:Generated_Source\PSoC5/Driver3.c ****                     #endif /* (Driver3_NUM_SEG > 8u) */
1038:Generated_Source\PSoC5/Driver3.c ****                     break;
1039:Generated_Source\PSoC5/Driver3.c ****                 case Driver3_SEG_REG_HIGH :
1040:Generated_Source\PSoC5/Driver3.c ****                     #if (Driver3_NUM_SEG > 16u)
1041:Generated_Source\PSoC5/Driver3.c ****                         Driver3_segHBuffer[relPosition] = Driver3_CLEAR;
1042:Generated_Source\PSoC5/Driver3.c ****                     #endif /* (Driver3_NUM_SEG > 16u) */
1043:Generated_Source\PSoC5/Driver3.c ****                     break;
1044:Generated_Source\PSoC5/Driver3.c ****                 default :
1045:Generated_Source\PSoC5/Driver3.c ****                     Driver3_segLBuffer[relPosition] = Driver3_CLEAR;
1046:Generated_Source\PSoC5/Driver3.c ****                     break;
1047:Generated_Source\PSoC5/Driver3.c ****             }
1048:Generated_Source\PSoC5/Driver3.c ****             relPosition++;
1049:Generated_Source\PSoC5/Driver3.c ****         }
1050:Generated_Source\PSoC5/Driver3.c ****     }
1051:Generated_Source\PSoC5/Driver3.c ****     else
1052:Generated_Source\PSoC5/Driver3.c ****     {
1053:Generated_Source\PSoC5/Driver3.c ****         /* Alignment for Right and zero padded */
1054:Generated_Source\PSoC5/Driver3.c ****         for(i = digits; i > 0u; i--)
1055:Generated_Source\PSoC5/Driver3.c ****         {
1056:Generated_Source\PSoC5/Driver3.c ****             if(((i + relPosition) - 1u) < Driver3_NUM_COM)
1057:Generated_Source\PSoC5/Driver3.c ****             {
1058:Generated_Source\PSoC5/Driver3.c ****                 /* Decide which row to use */
1059:Generated_Source\PSoC5/Driver3.c ****                 switch(choiceReg)
1060:Generated_Source\PSoC5/Driver3.c ****                 {
1061:Generated_Source\PSoC5/Driver3.c ****                     case Driver3_SEG_REG_LOW :
1062:Generated_Source\PSoC5/Driver3.c ****                         Driver3_segLBuffer[(i + relPosition) - 1u] = bufArray[i-1u];
1063:Generated_Source\PSoC5/Driver3.c ****                         break;
1064:Generated_Source\PSoC5/Driver3.c ****                     case Driver3_SEG_REG_MID :
1065:Generated_Source\PSoC5/Driver3.c ****                         #if (Driver3_NUM_SEG > 8u)
1066:Generated_Source\PSoC5/Driver3.c ****                             Driver3_segMBuffer[(i + relPosition) - 1u] = bufArray[i-1u];
1067:Generated_Source\PSoC5/Driver3.c ****                         #endif /* (Driver3_NUM_SEG > 8u) */
1068:Generated_Source\PSoC5/Driver3.c ****                         break;
1069:Generated_Source\PSoC5/Driver3.c ****                     case Driver3_SEG_REG_HIGH :
1070:Generated_Source\PSoC5/Driver3.c ****                         #if (Driver3_NUM_SEG > 16u)
1071:Generated_Source\PSoC5/Driver3.c ****                             Driver3_segHBuffer[(i + relPosition) - 1u] = bufArray[i-1u];
1072:Generated_Source\PSoC5/Driver3.c ****                         #endif /* (Driver3_NUM_SEG > 16u) */
1073:Generated_Source\PSoC5/Driver3.c ****                         break;
1074:Generated_Source\PSoC5/Driver3.c ****                     default :
1075:Generated_Source\PSoC5/Driver3.c ****                         Driver3_segLBuffer[(i + relPosition) - 1u] = bufArray[i-1u];
1076:Generated_Source\PSoC5/Driver3.c ****                         break;
1077:Generated_Source\PSoC5/Driver3.c ****                 }
1078:Generated_Source\PSoC5/Driver3.c ****             }
1079:Generated_Source\PSoC5/Driver3.c ****         }
1080:Generated_Source\PSoC5/Driver3.c ****     }
ARM GAS  C:\Users\tmj32\AppData\Local\Temp\cchH8kkE.s 			page 35


1081:Generated_Source\PSoC5/Driver3.c **** }
1082:Generated_Source\PSoC5/Driver3.c **** 
1083:Generated_Source\PSoC5/Driver3.c **** 
1084:Generated_Source\PSoC5/Driver3.c **** /*******************************************************************************
1085:Generated_Source\PSoC5/Driver3.c **** * Function Name: Driver3_Write7SegNumberHex
1086:Generated_Source\PSoC5/Driver3.c **** ********************************************************************************
1087:Generated_Source\PSoC5/Driver3.c **** *
1088:Generated_Source\PSoC5/Driver3.c **** * Summary:
1089:Generated_Source\PSoC5/Driver3.c **** *  Displays a hexadecimal number up to 8 characters long, starting at 'position'
1090:Generated_Source\PSoC5/Driver3.c **** *  and extending for 'digits' characters. If you do not use the correct number 
1091:Generated_Source\PSoC5/Driver3.c **** *  of digits for your number, the least significant digits will be displayed. 
1092:Generated_Source\PSoC5/Driver3.c **** *  For example, if value is 0xDEADBEEF, display is 0 and digits is 4, the result 
1093:Generated_Source\PSoC5/Driver3.c **** *  will be: BEEF.
1094:Generated_Source\PSoC5/Driver3.c **** *
1095:Generated_Source\PSoC5/Driver3.c **** * Parameters:
1096:Generated_Source\PSoC5/Driver3.c **** *  uint32 number: The hexadecimal number to display. It is the responsibility of
1097:Generated_Source\PSoC5/Driver3.c **** *                 the user to ensure that the display has enough digits to 
1098:Generated_Source\PSoC5/Driver3.c **** *                 accurately representthe number passed to this function. If 
1099:Generated_Source\PSoC5/Driver3.c **** *                 not, the least significant digits will be displayed.
1100:Generated_Source\PSoC5/Driver3.c **** *  uint8 position: Position of the Display/Common to start number.
1101:Generated_Source\PSoC5/Driver3.c **** *  uint8 digits: The number of digits you wish to use to display the value 
1102:Generated_Source\PSoC5/Driver3.c **** *                passed into the function. If you do not use the correct number 
1103:Generated_Source\PSoC5/Driver3.c **** *                of digits for your number, the least significant digits will be
1104:Generated_Source\PSoC5/Driver3.c **** *                displayed.
1105:Generated_Source\PSoC5/Driver3.c **** *  uint8 alignment: How to align the provided number in the allocated digits.
1106:Generated_Source\PSoC5/Driver3.c **** *       RIGHT_ALIGN - Least significant digit occupies the rightmost digit
1107:Generated_Source\PSoC5/Driver3.c **** *                     (position + digits). Unused digits are turned off unless
1108:Generated_Source\PSoC5/Driver3.c **** *                     ZERO_PAD enabled.
1109:Generated_Source\PSoC5/Driver3.c **** *       LEFT_ALIGN - Most significant digit (or negative sign) occupies the
1110:Generated_Source\PSoC5/Driver3.c **** *                    digit specified by position. Unused digits are turned off.
1111:Generated_Source\PSoC5/Driver3.c **** *       ZERO_PAD - Unused digits to the left are padded with leading zeros.
1112:Generated_Source\PSoC5/Driver3.c **** *
1113:Generated_Source\PSoC5/Driver3.c **** * Return:
1114:Generated_Source\PSoC5/Driver3.c **** *  None
1115:Generated_Source\PSoC5/Driver3.c **** *
1116:Generated_Source\PSoC5/Driver3.c **** * Side effects:
1117:Generated_Source\PSoC5/Driver3.c **** *  None
1118:Generated_Source\PSoC5/Driver3.c **** *
1119:Generated_Source\PSoC5/Driver3.c **** *******************************************************************************/
1120:Generated_Source\PSoC5/Driver3.c **** void Driver3_Write7SegNumberHex(uint32 number, uint8 position, uint8 digits, uint8 alignment)
1121:Generated_Source\PSoC5/Driver3.c **** 
1122:Generated_Source\PSoC5/Driver3.c **** {
1123:Generated_Source\PSoC5/Driver3.c ****     uint8 i;
1124:Generated_Source\PSoC5/Driver3.c ****     uint8 relPosition;
1125:Generated_Source\PSoC5/Driver3.c ****     uint8 choiceReg;
1126:Generated_Source\PSoC5/Driver3.c ****     uint8 selectVal;
1127:Generated_Source\PSoC5/Driver3.c ****     uint8 zeroCount = 0u;
1128:Generated_Source\PSoC5/Driver3.c ****     uint8 bufArray[8u] = {0u};
1129:Generated_Source\PSoC5/Driver3.c ****     uint32 numberVal;
1130:Generated_Source\PSoC5/Driver3.c ****         
1131:Generated_Source\PSoC5/Driver3.c ****     numberVal = number;
1132:Generated_Source\PSoC5/Driver3.c ****     
1133:Generated_Source\PSoC5/Driver3.c ****     /* Choose to use either the low, mid or high control registers */
1134:Generated_Source\PSoC5/Driver3.c ****     if(position < Driver3_NUM_COM)
1135:Generated_Source\PSoC5/Driver3.c ****     {
1136:Generated_Source\PSoC5/Driver3.c ****         choiceReg = Driver3_SEG_REG_LOW;
1137:Generated_Source\PSoC5/Driver3.c ****         relPosition = position;
ARM GAS  C:\Users\tmj32\AppData\Local\Temp\cchH8kkE.s 			page 36


1138:Generated_Source\PSoC5/Driver3.c ****     }
1139:Generated_Source\PSoC5/Driver3.c ****     else if (position < Driver3_TWO_NUM_COM)
1140:Generated_Source\PSoC5/Driver3.c ****     {
1141:Generated_Source\PSoC5/Driver3.c ****         choiceReg = Driver3_SEG_REG_MID;
1142:Generated_Source\PSoC5/Driver3.c ****         relPosition = position - Driver3_NUM_COM;
1143:Generated_Source\PSoC5/Driver3.c ****     }
1144:Generated_Source\PSoC5/Driver3.c ****     else
1145:Generated_Source\PSoC5/Driver3.c ****     {
1146:Generated_Source\PSoC5/Driver3.c ****         choiceReg = Driver3_SEG_REG_HIGH;
1147:Generated_Source\PSoC5/Driver3.c ****         relPosition = position - Driver3_TWO_NUM_COM;
1148:Generated_Source\PSoC5/Driver3.c ****     }
1149:Generated_Source\PSoC5/Driver3.c ****     
1150:Generated_Source\PSoC5/Driver3.c ****     /* Fill up the temporary array */
1151:Generated_Source\PSoC5/Driver3.c ****     for(i = digits; i > 0u; i--)
1152:Generated_Source\PSoC5/Driver3.c ****     {
1153:Generated_Source\PSoC5/Driver3.c ****         selectVal = (uint8)((uint8)numberVal & Driver3_NIBBLE_MASK);
1154:Generated_Source\PSoC5/Driver3.c ****         bufArray[i-1u] = Driver3_EncodeNumber7Seg(selectVal);
1155:Generated_Source\PSoC5/Driver3.c ****         numberVal = (uint32)((uint32)numberVal >> Driver3_SHIFT_NIBBLE);
1156:Generated_Source\PSoC5/Driver3.c ****     }
1157:Generated_Source\PSoC5/Driver3.c ****     
1158:Generated_Source\PSoC5/Driver3.c ****     /* Clean up the array */
1159:Generated_Source\PSoC5/Driver3.c ****     if(alignment != Driver3_ZERO_PAD)
1160:Generated_Source\PSoC5/Driver3.c ****     {
1161:Generated_Source\PSoC5/Driver3.c ****         for(i = 0u; i < digits; i++)
1162:Generated_Source\PSoC5/Driver3.c ****         {
1163:Generated_Source\PSoC5/Driver3.c ****             if (bufArray[i] != Driver3_ZERO_7CHAR)
1164:Generated_Source\PSoC5/Driver3.c ****             {
1165:Generated_Source\PSoC5/Driver3.c ****                 /* Exit when encountering non-zero number */
1166:Generated_Source\PSoC5/Driver3.c ****                 break;
1167:Generated_Source\PSoC5/Driver3.c ****             }
1168:Generated_Source\PSoC5/Driver3.c ****             else
1169:Generated_Source\PSoC5/Driver3.c ****             {
1170:Generated_Source\PSoC5/Driver3.c ****                 if(zeroCount != (digits - 1u))
1171:Generated_Source\PSoC5/Driver3.c ****                 {
1172:Generated_Source\PSoC5/Driver3.c ****                     /* Turn off the display */
1173:Generated_Source\PSoC5/Driver3.c ****                     bufArray[i] = Driver3_CLEAR;
1174:Generated_Source\PSoC5/Driver3.c ****                     zeroCount++;
1175:Generated_Source\PSoC5/Driver3.c ****                 }
1176:Generated_Source\PSoC5/Driver3.c ****             }    
1177:Generated_Source\PSoC5/Driver3.c ****         }
1178:Generated_Source\PSoC5/Driver3.c ****     }
1179:Generated_Source\PSoC5/Driver3.c ****     
1180:Generated_Source\PSoC5/Driver3.c ****     /* Place the values in the segment array according to alignment */
1181:Generated_Source\PSoC5/Driver3.c ****     if(alignment == Driver3_LEFT_ALIGN)
1182:Generated_Source\PSoC5/Driver3.c ****     {
1183:Generated_Source\PSoC5/Driver3.c ****         for(i = 0u; i < digits; i++)
1184:Generated_Source\PSoC5/Driver3.c ****         {
1185:Generated_Source\PSoC5/Driver3.c ****             if(bufArray[i] != Driver3_CLEAR)
1186:Generated_Source\PSoC5/Driver3.c ****             {
1187:Generated_Source\PSoC5/Driver3.c ****                 if(relPosition < Driver3_NUM_COM)
1188:Generated_Source\PSoC5/Driver3.c ****                 {
1189:Generated_Source\PSoC5/Driver3.c ****                     /* Only show displays that are not empty */
1190:Generated_Source\PSoC5/Driver3.c ****                     switch(choiceReg)
1191:Generated_Source\PSoC5/Driver3.c ****                     {
1192:Generated_Source\PSoC5/Driver3.c ****                         case Driver3_SEG_REG_LOW :
1193:Generated_Source\PSoC5/Driver3.c ****                             Driver3_segLBuffer[relPosition] = bufArray[i];
1194:Generated_Source\PSoC5/Driver3.c ****                             break;
ARM GAS  C:\Users\tmj32\AppData\Local\Temp\cchH8kkE.s 			page 37


1195:Generated_Source\PSoC5/Driver3.c ****                         case Driver3_SEG_REG_MID :
1196:Generated_Source\PSoC5/Driver3.c ****                             #if (Driver3_NUM_SEG > 8u)
1197:Generated_Source\PSoC5/Driver3.c ****                                 Driver3_segMBuffer[relPosition] = bufArray[i];
1198:Generated_Source\PSoC5/Driver3.c ****                             #endif /* (Driver3_NUM_SEG > 8u) */
1199:Generated_Source\PSoC5/Driver3.c ****                             break;
1200:Generated_Source\PSoC5/Driver3.c ****                         case Driver3_SEG_REG_HIGH :
1201:Generated_Source\PSoC5/Driver3.c ****                             #if (Driver3_NUM_SEG > 16u)
1202:Generated_Source\PSoC5/Driver3.c ****                                 Driver3_segHBuffer[relPosition] = bufArray[i];
1203:Generated_Source\PSoC5/Driver3.c ****                             #endif /* (Driver3_NUM_SEG > 16u) */
1204:Generated_Source\PSoC5/Driver3.c ****                             break;
1205:Generated_Source\PSoC5/Driver3.c ****                         default :
1206:Generated_Source\PSoC5/Driver3.c ****                             Driver3_segLBuffer[relPosition] = bufArray[i];
1207:Generated_Source\PSoC5/Driver3.c ****                             break;
1208:Generated_Source\PSoC5/Driver3.c ****                     }
1209:Generated_Source\PSoC5/Driver3.c ****                 }
1210:Generated_Source\PSoC5/Driver3.c ****                 relPosition++;
1211:Generated_Source\PSoC5/Driver3.c ****             }
1212:Generated_Source\PSoC5/Driver3.c ****         }
1213:Generated_Source\PSoC5/Driver3.c ****         /* Clear the rest of the positions to the right of value */
1214:Generated_Source\PSoC5/Driver3.c ****         while(relPosition < digits)
1215:Generated_Source\PSoC5/Driver3.c ****         {
1216:Generated_Source\PSoC5/Driver3.c ****             switch(choiceReg)
1217:Generated_Source\PSoC5/Driver3.c ****             {
1218:Generated_Source\PSoC5/Driver3.c ****                 case Driver3_SEG_REG_LOW :
1219:Generated_Source\PSoC5/Driver3.c ****                     Driver3_segLBuffer[relPosition] = Driver3_CLEAR;
1220:Generated_Source\PSoC5/Driver3.c ****                     break;
1221:Generated_Source\PSoC5/Driver3.c ****                 case Driver3_SEG_REG_MID :
1222:Generated_Source\PSoC5/Driver3.c ****                     #if (Driver3_NUM_SEG > 8u)
1223:Generated_Source\PSoC5/Driver3.c ****                         Driver3_segMBuffer[relPosition] = Driver3_CLEAR;
1224:Generated_Source\PSoC5/Driver3.c ****                     #endif /* (Driver3_NUM_SEG > 8u) */
1225:Generated_Source\PSoC5/Driver3.c ****                     break;
1226:Generated_Source\PSoC5/Driver3.c ****                 case Driver3_SEG_REG_HIGH :
1227:Generated_Source\PSoC5/Driver3.c ****                     #if (Driver3_NUM_SEG > 16u)
1228:Generated_Source\PSoC5/Driver3.c ****                         Driver3_segHBuffer[relPosition] = Driver3_CLEAR;
1229:Generated_Source\PSoC5/Driver3.c ****                     #endif /* (Driver3_NUM_SEG > 16u) */
1230:Generated_Source\PSoC5/Driver3.c ****                     break;
1231:Generated_Source\PSoC5/Driver3.c ****                 default :
1232:Generated_Source\PSoC5/Driver3.c ****                     Driver3_segLBuffer[relPosition] = Driver3_CLEAR;
1233:Generated_Source\PSoC5/Driver3.c ****                     break;
1234:Generated_Source\PSoC5/Driver3.c ****             }
1235:Generated_Source\PSoC5/Driver3.c ****             relPosition++;
1236:Generated_Source\PSoC5/Driver3.c ****         }
1237:Generated_Source\PSoC5/Driver3.c ****     }
1238:Generated_Source\PSoC5/Driver3.c ****     else
1239:Generated_Source\PSoC5/Driver3.c ****     {
1240:Generated_Source\PSoC5/Driver3.c ****         /* Alignment for right and zero padded */
1241:Generated_Source\PSoC5/Driver3.c ****         for(i = digits; i > 0u; i--)
1242:Generated_Source\PSoC5/Driver3.c ****         {
1243:Generated_Source\PSoC5/Driver3.c ****             if(((i + relPosition) - 1u) < Driver3_NUM_COM)
1244:Generated_Source\PSoC5/Driver3.c ****             {
1245:Generated_Source\PSoC5/Driver3.c ****                 /* Decide which row to use */
1246:Generated_Source\PSoC5/Driver3.c ****                 switch(choiceReg)
1247:Generated_Source\PSoC5/Driver3.c ****                 {
1248:Generated_Source\PSoC5/Driver3.c ****                     case Driver3_SEG_REG_LOW :
1249:Generated_Source\PSoC5/Driver3.c ****                         Driver3_segLBuffer[(i + relPosition) - 1u] = bufArray[i-1u];
1250:Generated_Source\PSoC5/Driver3.c ****                         break;
1251:Generated_Source\PSoC5/Driver3.c ****                     case Driver3_SEG_REG_MID :
ARM GAS  C:\Users\tmj32\AppData\Local\Temp\cchH8kkE.s 			page 38


1252:Generated_Source\PSoC5/Driver3.c ****                         #if (Driver3_NUM_SEG > 8u)
1253:Generated_Source\PSoC5/Driver3.c ****                             Driver3_segMBuffer[(i + relPosition) - 1u] = bufArray[i-1u];
1254:Generated_Source\PSoC5/Driver3.c ****                         #endif /* (Driver3_NUM_SEG > 8u) */
1255:Generated_Source\PSoC5/Driver3.c ****                         break;
1256:Generated_Source\PSoC5/Driver3.c ****                     case Driver3_SEG_REG_HIGH :
1257:Generated_Source\PSoC5/Driver3.c ****                         #if (Driver3_NUM_SEG > 16u)
1258:Generated_Source\PSoC5/Driver3.c ****                             Driver3_segHBuffer[(i + relPosition) - 1u] = bufArray[i-1u];
1259:Generated_Source\PSoC5/Driver3.c ****                         #endif /* (Driver3_NUM_SEG > 16u) */
1260:Generated_Source\PSoC5/Driver3.c ****                         break;
1261:Generated_Source\PSoC5/Driver3.c ****                     default :
1262:Generated_Source\PSoC5/Driver3.c ****                         Driver3_segLBuffer[(i + relPosition) - 1u] = bufArray[i-1u];
1263:Generated_Source\PSoC5/Driver3.c ****                         break;
1264:Generated_Source\PSoC5/Driver3.c ****                 }
1265:Generated_Source\PSoC5/Driver3.c ****             }
1266:Generated_Source\PSoC5/Driver3.c ****         }
1267:Generated_Source\PSoC5/Driver3.c ****     }
1268:Generated_Source\PSoC5/Driver3.c **** }
1269:Generated_Source\PSoC5/Driver3.c **** 
1270:Generated_Source\PSoC5/Driver3.c **** 
1271:Generated_Source\PSoC5/Driver3.c **** /*******************************************************************************
1272:Generated_Source\PSoC5/Driver3.c **** * Function Name: Driver3_WriteString7Seg
1273:Generated_Source\PSoC5/Driver3.c **** ********************************************************************************
1274:Generated_Source\PSoC5/Driver3.c **** *
1275:Generated_Source\PSoC5/Driver3.c **** * Summary:
1276:Generated_Source\PSoC5/Driver3.c **** *  Displays a null terminated string starting at 'position' and ending at either
1277:Generated_Source\PSoC5/Driver3.c **** *  at the end the string or the end of the display. The displayable characters 
1278:Generated_Source\PSoC5/Driver3.c **** *  are the same for the LED_Driver_PutChar7Seg() function. Non-displayable
1279:Generated_Source\PSoC5/Driver3.c **** *  characters will produce a blank space.
1280:Generated_Source\PSoC5/Driver3.c **** *
1281:Generated_Source\PSoC5/Driver3.c **** * Parameters:
1282:Generated_Source\PSoC5/Driver3.c **** *  char8 const character[]: The null terminated string to be displayed.
1283:Generated_Source\PSoC5/Driver3.c **** *  uint8 position: The position to start the string.
1284:Generated_Source\PSoC5/Driver3.c **** *
1285:Generated_Source\PSoC5/Driver3.c **** * Return:
1286:Generated_Source\PSoC5/Driver3.c **** *  None
1287:Generated_Source\PSoC5/Driver3.c **** *
1288:Generated_Source\PSoC5/Driver3.c **** * Side effects:
1289:Generated_Source\PSoC5/Driver3.c **** *  None
1290:Generated_Source\PSoC5/Driver3.c **** *
1291:Generated_Source\PSoC5/Driver3.c **** *******************************************************************************/
1292:Generated_Source\PSoC5/Driver3.c **** void Driver3_WriteString7Seg(char8 const character[], uint8 position)
1293:Generated_Source\PSoC5/Driver3.c **** 
1294:Generated_Source\PSoC5/Driver3.c **** {
1295:Generated_Source\PSoC5/Driver3.c ****     uint8 relPosition;
1296:Generated_Source\PSoC5/Driver3.c ****     uint8 sizeLimit;
1297:Generated_Source\PSoC5/Driver3.c ****     uint8 i = 0u;
1298:Generated_Source\PSoC5/Driver3.c ****     
1299:Generated_Source\PSoC5/Driver3.c ****     if(position < Driver3_NUM_COM)
1300:Generated_Source\PSoC5/Driver3.c ****     {
1301:Generated_Source\PSoC5/Driver3.c ****         sizeLimit = (uint8)(strlen(character)) + position;
1302:Generated_Source\PSoC5/Driver3.c ****         for(relPosition = position; relPosition < Driver3_NUM_COM; relPosition++)
1303:Generated_Source\PSoC5/Driver3.c ****         {
1304:Generated_Source\PSoC5/Driver3.c ****             if(relPosition < sizeLimit)
1305:Generated_Source\PSoC5/Driver3.c ****             {
1306:Generated_Source\PSoC5/Driver3.c ****                 Driver3_segLBuffer[relPosition] = Driver3_EncodeChar7Seg(character[i]);
1307:Generated_Source\PSoC5/Driver3.c ****                 i++;
1308:Generated_Source\PSoC5/Driver3.c ****             }
ARM GAS  C:\Users\tmj32\AppData\Local\Temp\cchH8kkE.s 			page 39


1309:Generated_Source\PSoC5/Driver3.c ****         }
1310:Generated_Source\PSoC5/Driver3.c ****     }    
1311:Generated_Source\PSoC5/Driver3.c ****     else if (position < Driver3_TWO_NUM_COM)
1312:Generated_Source\PSoC5/Driver3.c ****     {
1313:Generated_Source\PSoC5/Driver3.c ****         #if (Driver3_NUM_SEG > 8u) 
1314:Generated_Source\PSoC5/Driver3.c ****             sizeLimit = ((uint8)(strlen(character)) + position) - Driver3_NUM_COM;
1315:Generated_Source\PSoC5/Driver3.c ****             for(relPosition = position - Driver3_NUM_COM;
1316:Generated_Source\PSoC5/Driver3.c ****                 relPosition < Driver3_NUM_COM; 
1317:Generated_Source\PSoC5/Driver3.c ****                 relPosition++)
1318:Generated_Source\PSoC5/Driver3.c ****             {
1319:Generated_Source\PSoC5/Driver3.c ****                 if(relPosition < sizeLimit)
1320:Generated_Source\PSoC5/Driver3.c ****                 {
1321:Generated_Source\PSoC5/Driver3.c ****                     Driver3_segMBuffer[relPosition] = Driver3_EncodeChar7Seg(character[i]);
1322:Generated_Source\PSoC5/Driver3.c ****                     i++;
1323:Generated_Source\PSoC5/Driver3.c ****                 }
1324:Generated_Source\PSoC5/Driver3.c ****             }
1325:Generated_Source\PSoC5/Driver3.c ****         #endif /* (Driver3_NUM_SEG > 8u) */
1326:Generated_Source\PSoC5/Driver3.c ****     }
1327:Generated_Source\PSoC5/Driver3.c ****     else
1328:Generated_Source\PSoC5/Driver3.c ****     {
1329:Generated_Source\PSoC5/Driver3.c ****         #if (Driver3_NUM_SEG > 16u)
1330:Generated_Source\PSoC5/Driver3.c ****             sizeLimit = ((uint8)(strlen(character)) + position) - Driver3_TWO_NUM_COM;
1331:Generated_Source\PSoC5/Driver3.c ****             for(relPosition = position - Driver3_TWO_NUM_COM;
1332:Generated_Source\PSoC5/Driver3.c ****                 relPosition < Driver3_NUM_COM; 
1333:Generated_Source\PSoC5/Driver3.c ****                 relPosition++)
1334:Generated_Source\PSoC5/Driver3.c ****             {
1335:Generated_Source\PSoC5/Driver3.c ****                 if(relPosition < sizeLimit)
1336:Generated_Source\PSoC5/Driver3.c ****                 {
1337:Generated_Source\PSoC5/Driver3.c ****                     Driver3_segHBuffer[relPosition] = Driver3_EncodeChar7Seg(character[i]);
1338:Generated_Source\PSoC5/Driver3.c ****                     i++;
1339:Generated_Source\PSoC5/Driver3.c ****                 }    
1340:Generated_Source\PSoC5/Driver3.c ****             }
1341:Generated_Source\PSoC5/Driver3.c ****         #endif /* (Driver3_NUM_SEG > 16u) */
1342:Generated_Source\PSoC5/Driver3.c ****     }
1343:Generated_Source\PSoC5/Driver3.c **** }
1344:Generated_Source\PSoC5/Driver3.c **** 
1345:Generated_Source\PSoC5/Driver3.c **** 
1346:Generated_Source\PSoC5/Driver3.c **** /*******************************************************************************
1347:Generated_Source\PSoC5/Driver3.c **** * Function Name: Driver3_PutChar7Seg
1348:Generated_Source\PSoC5/Driver3.c **** ********************************************************************************
1349:Generated_Source\PSoC5/Driver3.c **** *
1350:Generated_Source\PSoC5/Driver3.c **** * Summary:
1351:Generated_Source\PSoC5/Driver3.c **** *  Displays an ascii encoded character at 'position'. This function can display 
1352:Generated_Source\PSoC5/Driver3.c **** *  all alphanumeric characters. The function can also display '-', '.', '_', 
1353:Generated_Source\PSoC5/Driver3.c **** *  ' ', and '='. All unknown characters are displayed as a space.
1354:Generated_Source\PSoC5/Driver3.c **** *
1355:Generated_Source\PSoC5/Driver3.c **** * Parameters:
1356:Generated_Source\PSoC5/Driver3.c **** *  char8 character: ASCII character.
1357:Generated_Source\PSoC5/Driver3.c **** *  uint8 position: The position of the character.
1358:Generated_Source\PSoC5/Driver3.c **** *
1359:Generated_Source\PSoC5/Driver3.c **** * Return:
1360:Generated_Source\PSoC5/Driver3.c **** *  None
1361:Generated_Source\PSoC5/Driver3.c **** *
1362:Generated_Source\PSoC5/Driver3.c **** * Side effects:
1363:Generated_Source\PSoC5/Driver3.c **** *  None
1364:Generated_Source\PSoC5/Driver3.c **** *
1365:Generated_Source\PSoC5/Driver3.c **** *******************************************************************************/
ARM GAS  C:\Users\tmj32\AppData\Local\Temp\cchH8kkE.s 			page 40


1366:Generated_Source\PSoC5/Driver3.c **** void Driver3_PutChar7Seg(char8 character , uint8 position)
1367:Generated_Source\PSoC5/Driver3.c **** 
1368:Generated_Source\PSoC5/Driver3.c **** {
1369:Generated_Source\PSoC5/Driver3.c ****     uint8 relPosition;
1370:Generated_Source\PSoC5/Driver3.c ****     
1371:Generated_Source\PSoC5/Driver3.c ****     if(position < Driver3_NUM_COM)
1372:Generated_Source\PSoC5/Driver3.c ****     {
1373:Generated_Source\PSoC5/Driver3.c ****         relPosition = position;
1374:Generated_Source\PSoC5/Driver3.c ****         Driver3_segLBuffer[relPosition] = Driver3_EncodeChar7Seg(character);
1375:Generated_Source\PSoC5/Driver3.c ****     }    
1376:Generated_Source\PSoC5/Driver3.c ****     else if (position < Driver3_TWO_NUM_COM)
1377:Generated_Source\PSoC5/Driver3.c ****     {
1378:Generated_Source\PSoC5/Driver3.c ****         #if (Driver3_NUM_SEG > 8u) 
1379:Generated_Source\PSoC5/Driver3.c ****             relPosition = position - Driver3_NUM_COM;
1380:Generated_Source\PSoC5/Driver3.c ****             Driver3_segMBuffer[relPosition] = Driver3_EncodeChar7Seg(character);
1381:Generated_Source\PSoC5/Driver3.c ****         #endif /* (Driver3_NUM_SEG > 8u) */
1382:Generated_Source\PSoC5/Driver3.c ****     }
1383:Generated_Source\PSoC5/Driver3.c ****     else
1384:Generated_Source\PSoC5/Driver3.c ****     {
1385:Generated_Source\PSoC5/Driver3.c ****         #if (Driver3_NUM_SEG > 16u)
1386:Generated_Source\PSoC5/Driver3.c ****             relPosition = position - Driver3_TWO_NUM_COM;
1387:Generated_Source\PSoC5/Driver3.c ****             if(relPosition < Driver3_NUM_COM)
1388:Generated_Source\PSoC5/Driver3.c ****             {
1389:Generated_Source\PSoC5/Driver3.c ****                 Driver3_segHBuffer[relPosition] = Driver3_EncodeChar7Seg(character);
1390:Generated_Source\PSoC5/Driver3.c ****             }
1391:Generated_Source\PSoC5/Driver3.c ****         #endif /* (Driver3_NUM_SEG > 16u) */
1392:Generated_Source\PSoC5/Driver3.c ****     }
1393:Generated_Source\PSoC5/Driver3.c **** }
1394:Generated_Source\PSoC5/Driver3.c **** 
1395:Generated_Source\PSoC5/Driver3.c **** 
1396:Generated_Source\PSoC5/Driver3.c **** /*******************************************************************************
1397:Generated_Source\PSoC5/Driver3.c **** * Function Name: Driver3_Write7SegDigitDec
1398:Generated_Source\PSoC5/Driver3.c **** ********************************************************************************
1399:Generated_Source\PSoC5/Driver3.c **** *
1400:Generated_Source\PSoC5/Driver3.c **** * Summary:
1401:Generated_Source\PSoC5/Driver3.c **** *  Displays a single digit on the specified display. The number in 'digit' 
1402:Generated_Source\PSoC5/Driver3.c **** *  (0-9) is placed on 'position.'
1403:Generated_Source\PSoC5/Driver3.c **** *
1404:Generated_Source\PSoC5/Driver3.c **** * Parameters:
1405:Generated_Source\PSoC5/Driver3.c **** *  uint8 digit: A number between 0 and 9 to display.
1406:Generated_Source\PSoC5/Driver3.c **** *  uint8 position: Position of the display in which to place the number.
1407:Generated_Source\PSoC5/Driver3.c **** *
1408:Generated_Source\PSoC5/Driver3.c **** * Return:
1409:Generated_Source\PSoC5/Driver3.c **** *  None
1410:Generated_Source\PSoC5/Driver3.c **** *
1411:Generated_Source\PSoC5/Driver3.c **** * Side effects:
1412:Generated_Source\PSoC5/Driver3.c **** *  None
1413:Generated_Source\PSoC5/Driver3.c **** *
1414:Generated_Source\PSoC5/Driver3.c **** *******************************************************************************/
1415:Generated_Source\PSoC5/Driver3.c **** void Driver3_Write7SegDigitDec(uint8 digit, uint8 position)
1416:Generated_Source\PSoC5/Driver3.c **** 
1417:Generated_Source\PSoC5/Driver3.c **** {
1418:Generated_Source\PSoC5/Driver3.c ****     uint8 relPosition;
1419:Generated_Source\PSoC5/Driver3.c ****     
1420:Generated_Source\PSoC5/Driver3.c ****     /* Only display numerical values */
1421:Generated_Source\PSoC5/Driver3.c ****     if (digit < 10u)
1422:Generated_Source\PSoC5/Driver3.c ****     {
ARM GAS  C:\Users\tmj32\AppData\Local\Temp\cchH8kkE.s 			page 41


1423:Generated_Source\PSoC5/Driver3.c ****         if(position < Driver3_NUM_COM)
1424:Generated_Source\PSoC5/Driver3.c ****         {
1425:Generated_Source\PSoC5/Driver3.c ****             relPosition = position;
1426:Generated_Source\PSoC5/Driver3.c ****             Driver3_segLBuffer[relPosition] = Driver3_EncodeNumber7Seg(digit);
1427:Generated_Source\PSoC5/Driver3.c ****         }    
1428:Generated_Source\PSoC5/Driver3.c ****         else if (position < Driver3_TWO_NUM_COM)
1429:Generated_Source\PSoC5/Driver3.c ****         {
1430:Generated_Source\PSoC5/Driver3.c ****             #if (Driver3_NUM_SEG > 8u)
1431:Generated_Source\PSoC5/Driver3.c ****                 relPosition = position - Driver3_NUM_COM;
1432:Generated_Source\PSoC5/Driver3.c ****                 Driver3_segMBuffer[relPosition] = Driver3_EncodeNumber7Seg(digit);
1433:Generated_Source\PSoC5/Driver3.c ****             #endif /* (Driver3_NUM_SEG > 8u) */
1434:Generated_Source\PSoC5/Driver3.c ****         } 
1435:Generated_Source\PSoC5/Driver3.c ****         else
1436:Generated_Source\PSoC5/Driver3.c ****         {
1437:Generated_Source\PSoC5/Driver3.c ****             #if (Driver3_NUM_SEG > 16u)
1438:Generated_Source\PSoC5/Driver3.c ****                 relPosition = position - Driver3_TWO_NUM_COM;
1439:Generated_Source\PSoC5/Driver3.c ****                 if(relPosition < Driver3_TWO_NUM_COM)
1440:Generated_Source\PSoC5/Driver3.c ****                 {
1441:Generated_Source\PSoC5/Driver3.c ****                     Driver3_segHBuffer[relPosition] = Driver3_EncodeNumber7Seg(digit);
1442:Generated_Source\PSoC5/Driver3.c ****                 }
1443:Generated_Source\PSoC5/Driver3.c ****             #endif /* (Driver3_NUM_SEG > 16u) */
1444:Generated_Source\PSoC5/Driver3.c ****         }
1445:Generated_Source\PSoC5/Driver3.c ****     }
1446:Generated_Source\PSoC5/Driver3.c **** }
1447:Generated_Source\PSoC5/Driver3.c **** 
1448:Generated_Source\PSoC5/Driver3.c **** 
1449:Generated_Source\PSoC5/Driver3.c **** /*******************************************************************************
1450:Generated_Source\PSoC5/Driver3.c **** * Function Name: Driver3_Write7SegDigitHex
1451:Generated_Source\PSoC5/Driver3.c **** ********************************************************************************
1452:Generated_Source\PSoC5/Driver3.c **** *
1453:Generated_Source\PSoC5/Driver3.c **** * Summary:
1454:Generated_Source\PSoC5/Driver3.c **** *  Displays a single digit at the specified position. The number in 'digit' 
1455:Generated_Source\PSoC5/Driver3.c **** *  (0-F) is placed on 'position'.
1456:Generated_Source\PSoC5/Driver3.c **** *
1457:Generated_Source\PSoC5/Driver3.c **** * Parameters:
1458:Generated_Source\PSoC5/Driver3.c **** *  uint8 digit: A number between 0x0 and 0xF (0 to 15)
1459:Generated_Source\PSoC5/Driver3.c **** *  uint8 position: The position in which to place the number.
1460:Generated_Source\PSoC5/Driver3.c **** *
1461:Generated_Source\PSoC5/Driver3.c **** * Return:
1462:Generated_Source\PSoC5/Driver3.c **** *  None
1463:Generated_Source\PSoC5/Driver3.c **** *
1464:Generated_Source\PSoC5/Driver3.c **** * Side effects:
1465:Generated_Source\PSoC5/Driver3.c **** *  None
1466:Generated_Source\PSoC5/Driver3.c **** *
1467:Generated_Source\PSoC5/Driver3.c **** *******************************************************************************/
1468:Generated_Source\PSoC5/Driver3.c **** void Driver3_Write7SegDigitHex(uint8 digit, uint8 position)
1469:Generated_Source\PSoC5/Driver3.c **** 
1470:Generated_Source\PSoC5/Driver3.c **** {
1471:Generated_Source\PSoC5/Driver3.c ****     uint8 relPosition;
1472:Generated_Source\PSoC5/Driver3.c ****     
1473:Generated_Source\PSoC5/Driver3.c ****     if(position < Driver3_NUM_COM)
1474:Generated_Source\PSoC5/Driver3.c ****     {
1475:Generated_Source\PSoC5/Driver3.c ****         relPosition = position;
1476:Generated_Source\PSoC5/Driver3.c ****         Driver3_segLBuffer[relPosition] = Driver3_EncodeNumber7Seg(digit);
1477:Generated_Source\PSoC5/Driver3.c ****     }    
1478:Generated_Source\PSoC5/Driver3.c ****     else if (position < Driver3_TWO_NUM_COM)
1479:Generated_Source\PSoC5/Driver3.c ****     {
ARM GAS  C:\Users\tmj32\AppData\Local\Temp\cchH8kkE.s 			page 42


1480:Generated_Source\PSoC5/Driver3.c ****         #if (Driver3_NUM_SEG > 8u) 
1481:Generated_Source\PSoC5/Driver3.c ****             relPosition = position - Driver3_NUM_COM;
1482:Generated_Source\PSoC5/Driver3.c ****             Driver3_segMBuffer[relPosition] = Driver3_EncodeNumber7Seg(digit);
1483:Generated_Source\PSoC5/Driver3.c ****         #endif /* (Driver3_NUM_SEG > 8u) */
1484:Generated_Source\PSoC5/Driver3.c ****     }
1485:Generated_Source\PSoC5/Driver3.c ****     else
1486:Generated_Source\PSoC5/Driver3.c ****     {
1487:Generated_Source\PSoC5/Driver3.c ****         #if (Driver3_NUM_SEG > 16u)
1488:Generated_Source\PSoC5/Driver3.c ****             relPosition = position - Driver3_TWO_NUM_COM;
1489:Generated_Source\PSoC5/Driver3.c ****             if(relPosition < Driver3_NUM_COM)
1490:Generated_Source\PSoC5/Driver3.c ****             {
1491:Generated_Source\PSoC5/Driver3.c ****                 Driver3_segHBuffer[relPosition] = Driver3_EncodeNumber7Seg(digit);
1492:Generated_Source\PSoC5/Driver3.c ****             }
1493:Generated_Source\PSoC5/Driver3.c ****         #endif /* (Driver3_NUM_SEG > 16u) */
1494:Generated_Source\PSoC5/Driver3.c ****     }
1495:Generated_Source\PSoC5/Driver3.c **** }
1496:Generated_Source\PSoC5/Driver3.c **** 
1497:Generated_Source\PSoC5/Driver3.c **** 
1498:Generated_Source\PSoC5/Driver3.c **** /*******************************************************************************
1499:Generated_Source\PSoC5/Driver3.c **** * Function Name: Driver3_Write14SegNumberDec
1500:Generated_Source\PSoC5/Driver3.c **** ********************************************************************************
1501:Generated_Source\PSoC5/Driver3.c **** *
1502:Generated_Source\PSoC5/Driver3.c **** * Summary:
1503:Generated_Source\PSoC5/Driver3.c **** *  Displays a signed integer up to 8 characters long, starting at 'position' and
1504:Generated_Source\PSoC5/Driver3.c **** *  extending for 'digits' characters. The negative sign will take an extra digit
1505:Generated_Source\PSoC5/Driver3.c **** *  if it is required. If you do not use the correct number of digits for your 
1506:Generated_Source\PSoC5/Driver3.c **** *  number, only the least significant digits will be displayed.
1507:Generated_Source\PSoC5/Driver3.c **** *
1508:Generated_Source\PSoC5/Driver3.c **** * Parameters:
1509:Generated_Source\PSoC5/Driver3.c **** *  int32 number: a signed integer number to display. It is the responsibility 
1510:Generated_Source\PSoC5/Driver3.c **** *                of the user to ensure that the display has enough digits to 
1511:Generated_Source\PSoC5/Driver3.c **** *                accurately represent the number passed to this function. Note 
1512:Generated_Source\PSoC5/Driver3.c **** *                that a negative number will require 1 more digit than the 
1513:Generated_Source\PSoC5/Driver3.c **** *                equivalent positive number to display the negative sign.
1514:Generated_Source\PSoC5/Driver3.c **** *  uint8 position: Digit position of the Display/Common RAM to start.
1515:Generated_Source\PSoC5/Driver3.c **** *  uint8 digits: The number of digits you wish to use to display the value 
1516:Generated_Source\PSoC5/Driver3.c **** *                passed into the function. The negative sign will take an extra
1517:Generated_Source\PSoC5/Driver3.c **** *                digit if it is required.
1518:Generated_Source\PSoC5/Driver3.c **** *  uint8 alignment: How to align the provided number in the allocated digits.
1519:Generated_Source\PSoC5/Driver3.c **** *       RIGHT_ALIGN - Least significant digit occupies the rightmost digit
1520:Generated_Source\PSoC5/Driver3.c **** *                     (position + digits). Unused digits are turned off unless
1521:Generated_Source\PSoC5/Driver3.c **** *                     ZERO_PAD enabled.
1522:Generated_Source\PSoC5/Driver3.c **** *       LEFT_ALIGN - Most significant digit (or negative sign) occupies the
1523:Generated_Source\PSoC5/Driver3.c **** *                    digit specified by position. Unused digits are turned off.
1524:Generated_Source\PSoC5/Driver3.c **** *       ZERO_PAD - Unused digits to the left are padded with leading zeros.
1525:Generated_Source\PSoC5/Driver3.c **** * Return:
1526:Generated_Source\PSoC5/Driver3.c **** *  None
1527:Generated_Source\PSoC5/Driver3.c **** *
1528:Generated_Source\PSoC5/Driver3.c **** * Side effects:
1529:Generated_Source\PSoC5/Driver3.c **** *  None
1530:Generated_Source\PSoC5/Driver3.c **** *
1531:Generated_Source\PSoC5/Driver3.c **** *******************************************************************************/
1532:Generated_Source\PSoC5/Driver3.c **** void Driver3_Write14SegNumberDec(int32 number, uint8 position, uint8 digits, uint8 alignment)
1533:Generated_Source\PSoC5/Driver3.c **** 
1534:Generated_Source\PSoC5/Driver3.c **** {
1535:Generated_Source\PSoC5/Driver3.c ****     uint8 i;
1536:Generated_Source\PSoC5/Driver3.c ****     uint8 relPosition;
ARM GAS  C:\Users\tmj32\AppData\Local\Temp\cchH8kkE.s 			page 43


1537:Generated_Source\PSoC5/Driver3.c ****     uint8 numberSign;
1538:Generated_Source\PSoC5/Driver3.c ****     uint8 selectVal;
1539:Generated_Source\PSoC5/Driver3.c ****     uint8 zeroCount = 0u;
1540:Generated_Source\PSoC5/Driver3.c ****     uint16 bufArray[8u] = {0u};
1541:Generated_Source\PSoC5/Driver3.c ****     uint32 numberVal;
1542:Generated_Source\PSoC5/Driver3.c ****         
1543:Generated_Source\PSoC5/Driver3.c ****     /* Routine to extract the sign and to convert to unsigned */
1544:Generated_Source\PSoC5/Driver3.c ****     if(number >= Driver3_ZERO_NEG)
1545:Generated_Source\PSoC5/Driver3.c ****     {
1546:Generated_Source\PSoC5/Driver3.c ****         numberVal = (uint32)number;
1547:Generated_Source\PSoC5/Driver3.c ****         numberSign = Driver3_UNSIGNED;
1548:Generated_Source\PSoC5/Driver3.c ****     }
1549:Generated_Source\PSoC5/Driver3.c ****     else
1550:Generated_Source\PSoC5/Driver3.c ****     {
1551:Generated_Source\PSoC5/Driver3.c ****         numberVal = (uint32)(-number);
1552:Generated_Source\PSoC5/Driver3.c ****         numberSign = Driver3_SIGNED;
1553:Generated_Source\PSoC5/Driver3.c ****     }
1554:Generated_Source\PSoC5/Driver3.c ****     
1555:Generated_Source\PSoC5/Driver3.c ****     /* Fill up the temporary array */
1556:Generated_Source\PSoC5/Driver3.c ****     for(i = digits; i > 0u; i--)
1557:Generated_Source\PSoC5/Driver3.c ****     {
1558:Generated_Source\PSoC5/Driver3.c ****         selectVal = (uint8)(numberVal % 10u);
1559:Generated_Source\PSoC5/Driver3.c ****         bufArray[i-1u] = Driver3_EncodeNumber14Seg(selectVal);
1560:Generated_Source\PSoC5/Driver3.c ****         numberVal = numberVal / 10u;
1561:Generated_Source\PSoC5/Driver3.c ****     }
1562:Generated_Source\PSoC5/Driver3.c ****     
1563:Generated_Source\PSoC5/Driver3.c ****     /* Clean up the array and place sign if needed */
1564:Generated_Source\PSoC5/Driver3.c ****     if(alignment == Driver3_ZERO_PAD)
1565:Generated_Source\PSoC5/Driver3.c ****     {
1566:Generated_Source\PSoC5/Driver3.c ****         if(numberSign == Driver3_SIGNED)
1567:Generated_Source\PSoC5/Driver3.c ****         {
1568:Generated_Source\PSoC5/Driver3.c ****             /* Place sign on the MSB */
1569:Generated_Source\PSoC5/Driver3.c ****             bufArray[0u] = Driver3_EncodeChar14Seg('-');
1570:Generated_Source\PSoC5/Driver3.c ****         }
1571:Generated_Source\PSoC5/Driver3.c ****     }
1572:Generated_Source\PSoC5/Driver3.c ****     else
1573:Generated_Source\PSoC5/Driver3.c ****     {
1574:Generated_Source\PSoC5/Driver3.c ****         for(i = 0u; i < digits; i++)
1575:Generated_Source\PSoC5/Driver3.c ****         {
1576:Generated_Source\PSoC5/Driver3.c ****             if (bufArray[i] != Driver3_ZERO_14CHAR)
1577:Generated_Source\PSoC5/Driver3.c ****             {
1578:Generated_Source\PSoC5/Driver3.c ****                 if(numberSign == Driver3_SIGNED)
1579:Generated_Source\PSoC5/Driver3.c ****                 {
1580:Generated_Source\PSoC5/Driver3.c ****                     if(i == 0u)
1581:Generated_Source\PSoC5/Driver3.c ****                     {
1582:Generated_Source\PSoC5/Driver3.c ****                         /* Place sign on the MSB */
1583:Generated_Source\PSoC5/Driver3.c ****                         bufArray[i] = Driver3_EncodeChar14Seg('-');
1584:Generated_Source\PSoC5/Driver3.c ****                     }
1585:Generated_Source\PSoC5/Driver3.c ****                     else
1586:Generated_Source\PSoC5/Driver3.c ****                     {
1587:Generated_Source\PSoC5/Driver3.c ****                         /* Place sign before MSB */
1588:Generated_Source\PSoC5/Driver3.c ****                         bufArray[i-1u] = Driver3_EncodeChar14Seg('-');
1589:Generated_Source\PSoC5/Driver3.c ****                     }
1590:Generated_Source\PSoC5/Driver3.c ****                 }
1591:Generated_Source\PSoC5/Driver3.c ****                 /* Exit when encountering non-zero number */
1592:Generated_Source\PSoC5/Driver3.c ****                 break;
1593:Generated_Source\PSoC5/Driver3.c ****             }
ARM GAS  C:\Users\tmj32\AppData\Local\Temp\cchH8kkE.s 			page 44


1594:Generated_Source\PSoC5/Driver3.c ****             else
1595:Generated_Source\PSoC5/Driver3.c ****             {
1596:Generated_Source\PSoC5/Driver3.c ****                 if(zeroCount != (digits - 1u))
1597:Generated_Source\PSoC5/Driver3.c ****                 {
1598:Generated_Source\PSoC5/Driver3.c ****                     /* Turn off the display */
1599:Generated_Source\PSoC5/Driver3.c ****                     bufArray[i] = Driver3_CLEAR_16;
1600:Generated_Source\PSoC5/Driver3.c ****                     zeroCount++;
1601:Generated_Source\PSoC5/Driver3.c ****                 }
1602:Generated_Source\PSoC5/Driver3.c ****             }    
1603:Generated_Source\PSoC5/Driver3.c ****         }
1604:Generated_Source\PSoC5/Driver3.c ****     }
1605:Generated_Source\PSoC5/Driver3.c ****     
1606:Generated_Source\PSoC5/Driver3.c ****     relPosition = position;
1607:Generated_Source\PSoC5/Driver3.c ****     
1608:Generated_Source\PSoC5/Driver3.c ****     /* Place the values in the segment array according to alignment */
1609:Generated_Source\PSoC5/Driver3.c ****     if(alignment == Driver3_LEFT_ALIGN)
1610:Generated_Source\PSoC5/Driver3.c ****     {
1611:Generated_Source\PSoC5/Driver3.c ****         for(i = 0u; i < digits; i++)
1612:Generated_Source\PSoC5/Driver3.c ****         {
1613:Generated_Source\PSoC5/Driver3.c ****             if(bufArray[i] != Driver3_CLEAR_16)
1614:Generated_Source\PSoC5/Driver3.c ****             {
1615:Generated_Source\PSoC5/Driver3.c ****                 if(relPosition < Driver3_NUM_COM)
1616:Generated_Source\PSoC5/Driver3.c ****                 {
1617:Generated_Source\PSoC5/Driver3.c ****                     /* Only show displays that are not empty */
1618:Generated_Source\PSoC5/Driver3.c ****                     Driver3_segLBuffer[relPosition] = LO8(bufArray[i]);
1619:Generated_Source\PSoC5/Driver3.c ****                 #if (Driver3_NUM_SEG > 8u)
1620:Generated_Source\PSoC5/Driver3.c ****                     Driver3_segMBuffer[relPosition] = HI8(bufArray[i]);
1621:Generated_Source\PSoC5/Driver3.c ****                 #endif /* (Driver3_NUM_SEG > 8u) */
1622:Generated_Source\PSoC5/Driver3.c ****                 }
1623:Generated_Source\PSoC5/Driver3.c ****                 relPosition++;
1624:Generated_Source\PSoC5/Driver3.c ****             }
1625:Generated_Source\PSoC5/Driver3.c ****         }
1626:Generated_Source\PSoC5/Driver3.c ****         /* Clear the rest of the positions to the right of value */
1627:Generated_Source\PSoC5/Driver3.c ****         while(relPosition < digits)
1628:Generated_Source\PSoC5/Driver3.c ****         {
1629:Generated_Source\PSoC5/Driver3.c ****             /* Only show displays that are not empty */
1630:Generated_Source\PSoC5/Driver3.c ****             Driver3_segLBuffer[relPosition] = Driver3_CLEAR;
1631:Generated_Source\PSoC5/Driver3.c ****             #if (Driver3_NUM_SEG > 8u)
1632:Generated_Source\PSoC5/Driver3.c ****                 Driver3_segMBuffer[relPosition] = Driver3_CLEAR;
1633:Generated_Source\PSoC5/Driver3.c ****             #endif /* (Driver3_NUM_SEG > 8u) */
1634:Generated_Source\PSoC5/Driver3.c ****             
1635:Generated_Source\PSoC5/Driver3.c ****             relPosition++;
1636:Generated_Source\PSoC5/Driver3.c ****         }
1637:Generated_Source\PSoC5/Driver3.c ****     }
1638:Generated_Source\PSoC5/Driver3.c ****     else
1639:Generated_Source\PSoC5/Driver3.c ****     {
1640:Generated_Source\PSoC5/Driver3.c ****         for(i = digits; i > 0u; i--)
1641:Generated_Source\PSoC5/Driver3.c ****         {
1642:Generated_Source\PSoC5/Driver3.c ****             if(((i + relPosition) - 1u) < Driver3_NUM_COM)
1643:Generated_Source\PSoC5/Driver3.c ****             {
1644:Generated_Source\PSoC5/Driver3.c ****                 Driver3_segLBuffer[(i + relPosition) - 1u] = LO8(bufArray[i-1u]);
1645:Generated_Source\PSoC5/Driver3.c ****             #if (Driver3_NUM_SEG > 8u)
1646:Generated_Source\PSoC5/Driver3.c ****                 Driver3_segMBuffer[(i + relPosition) - 1u] = HI8(bufArray[i-1u]);
1647:Generated_Source\PSoC5/Driver3.c ****             #endif /* (Driver3_NUM_SEG > 8u) */
1648:Generated_Source\PSoC5/Driver3.c ****             }
1649:Generated_Source\PSoC5/Driver3.c ****         }  
1650:Generated_Source\PSoC5/Driver3.c ****     }
ARM GAS  C:\Users\tmj32\AppData\Local\Temp\cchH8kkE.s 			page 45


1651:Generated_Source\PSoC5/Driver3.c **** }
1652:Generated_Source\PSoC5/Driver3.c **** 
1653:Generated_Source\PSoC5/Driver3.c **** 
1654:Generated_Source\PSoC5/Driver3.c **** /*******************************************************************************
1655:Generated_Source\PSoC5/Driver3.c **** * Function Name: Driver3_Write14SegNumberHex
1656:Generated_Source\PSoC5/Driver3.c **** ********************************************************************************
1657:Generated_Source\PSoC5/Driver3.c **** *
1658:Generated_Source\PSoC5/Driver3.c **** * Summary:
1659:Generated_Source\PSoC5/Driver3.c **** *  Displays a hexadecimal number up to 8 characters long, starting at 'position'
1660:Generated_Source\PSoC5/Driver3.c **** *  and extending for 'digits' characters. If you do not use the correct number
1661:Generated_Source\PSoC5/Driver3.c **** *  of digits for your number, the least significant digits will be displayed. 
1662:Generated_Source\PSoC5/Driver3.c **** *  For example, if value is 0xDEADBEEF, display is 0 and digits is 4, the result
1663:Generated_Source\PSoC5/Driver3.c **** *  will be: BEEF.
1664:Generated_Source\PSoC5/Driver3.c **** *
1665:Generated_Source\PSoC5/Driver3.c **** * Parameters:
1666:Generated_Source\PSoC5/Driver3.c **** *  uint32 number: The hexadecimal number to display. It is the responsibility 
1667:Generated_Source\PSoC5/Driver3.c **** *                 of the user to ensure that the display has enough digits to 
1668:Generated_Source\PSoC5/Driver3.c **** *                 accurately represent the number passed to this function. If 
1669:Generated_Source\PSoC5/Driver3.c **** *                 not, only the least significant digits will be displayed.
1670:Generated_Source\PSoC5/Driver3.c **** *  uint8 position: Position of the Display/Common to start number.
1671:Generated_Source\PSoC5/Driver3.c **** *  uint8 digits: The number of digits you wish to use to display the value 
1672:Generated_Source\PSoC5/Driver3.c **** *                passed into the function. If you do not use the correct number
1673:Generated_Source\PSoC5/Driver3.c **** *                of digits for your number, the least significant digits will 
1674:Generated_Source\PSoC5/Driver3.c **** *                be displayed.
1675:Generated_Source\PSoC5/Driver3.c **** *  uint8 alignment: How to align the provided number in the allocated digits.
1676:Generated_Source\PSoC5/Driver3.c **** *       RIGHT_ALIGN - Least significant digit occupies the rightmost digit
1677:Generated_Source\PSoC5/Driver3.c **** *                     (position + digits). Unused digits are turned off unless
1678:Generated_Source\PSoC5/Driver3.c **** *                     ZERO_PAD enabled.
1679:Generated_Source\PSoC5/Driver3.c **** *       LEFT_ALIGN - Most significant digit (or negative sign) occupies the
1680:Generated_Source\PSoC5/Driver3.c **** *                    digit specified by position. Unused digits are turned off.
1681:Generated_Source\PSoC5/Driver3.c **** *       ZERO_PAD - Unused digits to the left are padded with leading zeros.
1682:Generated_Source\PSoC5/Driver3.c **** * Return:
1683:Generated_Source\PSoC5/Driver3.c **** *  None
1684:Generated_Source\PSoC5/Driver3.c **** *
1685:Generated_Source\PSoC5/Driver3.c **** * Side effects:
1686:Generated_Source\PSoC5/Driver3.c **** *  None
1687:Generated_Source\PSoC5/Driver3.c **** *
1688:Generated_Source\PSoC5/Driver3.c **** *******************************************************************************/
1689:Generated_Source\PSoC5/Driver3.c **** void Driver3_Write14SegNumberHex(uint32 number, uint8 position, uint8 digits, uint8 alignment)
1690:Generated_Source\PSoC5/Driver3.c **** 
1691:Generated_Source\PSoC5/Driver3.c **** {
1692:Generated_Source\PSoC5/Driver3.c ****     uint8 i;
1693:Generated_Source\PSoC5/Driver3.c ****     uint8 relPosition;
1694:Generated_Source\PSoC5/Driver3.c ****     uint8 selectVal;
1695:Generated_Source\PSoC5/Driver3.c ****     uint16 bufArray[8u] = {0u};
1696:Generated_Source\PSoC5/Driver3.c ****     uint32 numberVal;
1697:Generated_Source\PSoC5/Driver3.c ****     
1698:Generated_Source\PSoC5/Driver3.c ****     numberVal = number;
1699:Generated_Source\PSoC5/Driver3.c ****     
1700:Generated_Source\PSoC5/Driver3.c ****     /* Fill up the temporary array */
1701:Generated_Source\PSoC5/Driver3.c ****     for(i = digits; i > 0u; i--)
1702:Generated_Source\PSoC5/Driver3.c ****     {
1703:Generated_Source\PSoC5/Driver3.c ****         selectVal = (uint8)((uint8)numberVal & Driver3_NIBBLE_MASK);
1704:Generated_Source\PSoC5/Driver3.c ****         bufArray[i-1u] = Driver3_EncodeNumber14Seg(selectVal);
1705:Generated_Source\PSoC5/Driver3.c ****         numberVal = (uint32)((uint32)numberVal >> Driver3_SHIFT_NIBBLE);
1706:Generated_Source\PSoC5/Driver3.c ****     }
1707:Generated_Source\PSoC5/Driver3.c ****     
ARM GAS  C:\Users\tmj32\AppData\Local\Temp\cchH8kkE.s 			page 46


1708:Generated_Source\PSoC5/Driver3.c ****     /* Clean up the array */
1709:Generated_Source\PSoC5/Driver3.c ****     for(i = 0u; i < digits; i++)
1710:Generated_Source\PSoC5/Driver3.c ****     {
1711:Generated_Source\PSoC5/Driver3.c ****         if (bufArray[i] != Driver3_ZERO_14CHAR)
1712:Generated_Source\PSoC5/Driver3.c ****         {
1713:Generated_Source\PSoC5/Driver3.c ****             /* Exit when encountering non-zero number */
1714:Generated_Source\PSoC5/Driver3.c ****             break;
1715:Generated_Source\PSoC5/Driver3.c ****         }
1716:Generated_Source\PSoC5/Driver3.c ****         else
1717:Generated_Source\PSoC5/Driver3.c ****         {
1718:Generated_Source\PSoC5/Driver3.c ****             /* Turn off the display */
1719:Generated_Source\PSoC5/Driver3.c ****             bufArray[i] = Driver3_CLEAR_16;
1720:Generated_Source\PSoC5/Driver3.c ****         }    
1721:Generated_Source\PSoC5/Driver3.c ****     }
1722:Generated_Source\PSoC5/Driver3.c ****     
1723:Generated_Source\PSoC5/Driver3.c ****     relPosition = position;
1724:Generated_Source\PSoC5/Driver3.c ****     
1725:Generated_Source\PSoC5/Driver3.c ****     /* Place the values in the segment array according to alignment */
1726:Generated_Source\PSoC5/Driver3.c ****     if(alignment == Driver3_LEFT_ALIGN)
1727:Generated_Source\PSoC5/Driver3.c ****     {
1728:Generated_Source\PSoC5/Driver3.c ****         for(i = 0u; i < digits; i++)
1729:Generated_Source\PSoC5/Driver3.c ****         {
1730:Generated_Source\PSoC5/Driver3.c ****             if(bufArray[i] != Driver3_CLEAR_16)
1731:Generated_Source\PSoC5/Driver3.c ****             {
1732:Generated_Source\PSoC5/Driver3.c ****                 if(relPosition < Driver3_NUM_COM)
1733:Generated_Source\PSoC5/Driver3.c ****                 {
1734:Generated_Source\PSoC5/Driver3.c ****                     /* Only show displays that are not empty */
1735:Generated_Source\PSoC5/Driver3.c ****                     Driver3_segLBuffer[relPosition] = LO8(bufArray[i]);
1736:Generated_Source\PSoC5/Driver3.c ****                 #if (Driver3_NUM_SEG > 8u)
1737:Generated_Source\PSoC5/Driver3.c ****                     Driver3_segMBuffer[relPosition] = HI8(bufArray[i]);
1738:Generated_Source\PSoC5/Driver3.c ****                 #endif /* (Driver3_NUM_SEG > 8u) */
1739:Generated_Source\PSoC5/Driver3.c ****                 }
1740:Generated_Source\PSoC5/Driver3.c ****                 relPosition++;
1741:Generated_Source\PSoC5/Driver3.c ****             }
1742:Generated_Source\PSoC5/Driver3.c ****         }
1743:Generated_Source\PSoC5/Driver3.c ****         /* Clear the rest of the positions to the right of value */
1744:Generated_Source\PSoC5/Driver3.c ****         while(relPosition < digits)
1745:Generated_Source\PSoC5/Driver3.c ****         {
1746:Generated_Source\PSoC5/Driver3.c ****             /* Only show displays that are not empty */
1747:Generated_Source\PSoC5/Driver3.c ****             Driver3_segLBuffer[relPosition] = Driver3_CLEAR;
1748:Generated_Source\PSoC5/Driver3.c ****             #if (Driver3_NUM_SEG > 8u)
1749:Generated_Source\PSoC5/Driver3.c ****                 Driver3_segMBuffer[relPosition] = Driver3_CLEAR;
1750:Generated_Source\PSoC5/Driver3.c ****             #endif /* (Driver3_NUM_SEG > 8u) */
1751:Generated_Source\PSoC5/Driver3.c ****             
1752:Generated_Source\PSoC5/Driver3.c ****             relPosition++;
1753:Generated_Source\PSoC5/Driver3.c ****         }
1754:Generated_Source\PSoC5/Driver3.c ****     }
1755:Generated_Source\PSoC5/Driver3.c ****     else
1756:Generated_Source\PSoC5/Driver3.c ****     {
1757:Generated_Source\PSoC5/Driver3.c ****         for(i = digits; i > 0u; i--)
1758:Generated_Source\PSoC5/Driver3.c ****         {
1759:Generated_Source\PSoC5/Driver3.c ****             if(((i + relPosition) - 1u) < Driver3_NUM_COM)
1760:Generated_Source\PSoC5/Driver3.c ****             {
1761:Generated_Source\PSoC5/Driver3.c ****                 Driver3_segLBuffer[(i + relPosition) - 1u] = LO8(bufArray[i-1u]);
1762:Generated_Source\PSoC5/Driver3.c ****             #if (Driver3_NUM_SEG > 8u)
1763:Generated_Source\PSoC5/Driver3.c ****                 Driver3_segMBuffer[(i + relPosition) - 1u] = HI8(bufArray[i-1u]);
1764:Generated_Source\PSoC5/Driver3.c ****             #endif /* (Driver3_NUM_SEG > 8u) */
ARM GAS  C:\Users\tmj32\AppData\Local\Temp\cchH8kkE.s 			page 47


1765:Generated_Source\PSoC5/Driver3.c ****             }
1766:Generated_Source\PSoC5/Driver3.c ****         }  
1767:Generated_Source\PSoC5/Driver3.c ****     }
1768:Generated_Source\PSoC5/Driver3.c **** }
1769:Generated_Source\PSoC5/Driver3.c **** 
1770:Generated_Source\PSoC5/Driver3.c **** 
1771:Generated_Source\PSoC5/Driver3.c **** /*******************************************************************************
1772:Generated_Source\PSoC5/Driver3.c **** * Function Name: Driver3_WriteString14Seg
1773:Generated_Source\PSoC5/Driver3.c **** ********************************************************************************
1774:Generated_Source\PSoC5/Driver3.c **** *
1775:Generated_Source\PSoC5/Driver3.c **** * Summary:
1776:Generated_Source\PSoC5/Driver3.c **** *  Displays a null terminated string starting at 'position' and ending at 
1777:Generated_Source\PSoC5/Driver3.c **** *  either the  the string or the  the display. The displayable 
1778:Generated_Source\PSoC5/Driver3.c **** *  characters are the same for the LED_Driver_PutCharacter() function. 
1779:Generated_Source\PSoC5/Driver3.c **** *  Non-displayable characters will produce a blank space.
1780:Generated_Source\PSoC5/Driver3.c **** *
1781:Generated_Source\PSoC5/Driver3.c **** * Parameters:
1782:Generated_Source\PSoC5/Driver3.c **** *  char8 const character[]: The null terminated string to be displayed.
1783:Generated_Source\PSoC5/Driver3.c **** *  uint8 position: The position to start the string.
1784:Generated_Source\PSoC5/Driver3.c **** *
1785:Generated_Source\PSoC5/Driver3.c **** * Return:
1786:Generated_Source\PSoC5/Driver3.c **** *  None
1787:Generated_Source\PSoC5/Driver3.c **** *
1788:Generated_Source\PSoC5/Driver3.c **** * Side effects:
1789:Generated_Source\PSoC5/Driver3.c **** *  None
1790:Generated_Source\PSoC5/Driver3.c **** *
1791:Generated_Source\PSoC5/Driver3.c **** *******************************************************************************/
1792:Generated_Source\PSoC5/Driver3.c **** void Driver3_WriteString14Seg(char8 const character[], uint8 position)
1793:Generated_Source\PSoC5/Driver3.c **** 
1794:Generated_Source\PSoC5/Driver3.c **** {
1795:Generated_Source\PSoC5/Driver3.c ****     uint8 currPosition;
1796:Generated_Source\PSoC5/Driver3.c ****     uint8 sizeLimit;
1797:Generated_Source\PSoC5/Driver3.c ****     uint8 i = 0u;
1798:Generated_Source\PSoC5/Driver3.c ****     uint16 charDisplay;
1799:Generated_Source\PSoC5/Driver3.c ****     
1800:Generated_Source\PSoC5/Driver3.c ****     sizeLimit = (uint8)(strlen(character)) + position;
1801:Generated_Source\PSoC5/Driver3.c ****     
1802:Generated_Source\PSoC5/Driver3.c ****     for(currPosition = position; currPosition < Driver3_NUM_COM; currPosition++)
1803:Generated_Source\PSoC5/Driver3.c ****     {
1804:Generated_Source\PSoC5/Driver3.c ****         if(currPosition < sizeLimit)
1805:Generated_Source\PSoC5/Driver3.c ****         {
1806:Generated_Source\PSoC5/Driver3.c ****             charDisplay = Driver3_EncodeChar14Seg(character[i]);
1807:Generated_Source\PSoC5/Driver3.c ****             Driver3_segLBuffer[currPosition] = LO8(charDisplay);
1808:Generated_Source\PSoC5/Driver3.c ****             #if (Driver3_NUM_SEG > 8u)
1809:Generated_Source\PSoC5/Driver3.c ****             Driver3_segMBuffer[currPosition] = HI8(charDisplay);
1810:Generated_Source\PSoC5/Driver3.c ****             #endif /* (Driver3_NUM_SEG > 8u) */
1811:Generated_Source\PSoC5/Driver3.c ****             i++;
1812:Generated_Source\PSoC5/Driver3.c ****         }
1813:Generated_Source\PSoC5/Driver3.c ****     }
1814:Generated_Source\PSoC5/Driver3.c **** }
1815:Generated_Source\PSoC5/Driver3.c **** 
1816:Generated_Source\PSoC5/Driver3.c **** 
1817:Generated_Source\PSoC5/Driver3.c **** /*******************************************************************************
1818:Generated_Source\PSoC5/Driver3.c **** * Function Name: Driver3_PutChar14Seg
1819:Generated_Source\PSoC5/Driver3.c **** ********************************************************************************
1820:Generated_Source\PSoC5/Driver3.c **** *
1821:Generated_Source\PSoC5/Driver3.c **** * Summary:
ARM GAS  C:\Users\tmj32\AppData\Local\Temp\cchH8kkE.s 			page 48


1822:Generated_Source\PSoC5/Driver3.c **** *  Displays an ascii encoded character at 'position'. This function can display
1823:Generated_Source\PSoC5/Driver3.c **** *  all alphanumeric characters. The function can also display '-', '.', '_', 
1824:Generated_Source\PSoC5/Driver3.c **** *  ' ', and '='. All unknown characters are displayed as a space.
1825:Generated_Source\PSoC5/Driver3.c **** *
1826:Generated_Source\PSoC5/Driver3.c **** * Parameters:
1827:Generated_Source\PSoC5/Driver3.c **** *  char8 character: ASCII character.
1828:Generated_Source\PSoC5/Driver3.c **** *  uint8 position: The position of the character.
1829:Generated_Source\PSoC5/Driver3.c **** *
1830:Generated_Source\PSoC5/Driver3.c **** * Return:
1831:Generated_Source\PSoC5/Driver3.c **** *  None
1832:Generated_Source\PSoC5/Driver3.c **** *
1833:Generated_Source\PSoC5/Driver3.c **** * Side effects:
1834:Generated_Source\PSoC5/Driver3.c **** *  None
1835:Generated_Source\PSoC5/Driver3.c **** *
1836:Generated_Source\PSoC5/Driver3.c **** *******************************************************************************/
1837:Generated_Source\PSoC5/Driver3.c **** void Driver3_PutChar14Seg(char8 character , uint8 position)
1838:Generated_Source\PSoC5/Driver3.c **** 
1839:Generated_Source\PSoC5/Driver3.c **** {
1840:Generated_Source\PSoC5/Driver3.c ****     uint16 charDisplay;
1841:Generated_Source\PSoC5/Driver3.c ****     
1842:Generated_Source\PSoC5/Driver3.c ****     if(position < Driver3_NUM_COM)
1843:Generated_Source\PSoC5/Driver3.c ****     {
1844:Generated_Source\PSoC5/Driver3.c ****         charDisplay = Driver3_EncodeChar14Seg(character);
1845:Generated_Source\PSoC5/Driver3.c ****         Driver3_segLBuffer[position] = LO8(charDisplay);
1846:Generated_Source\PSoC5/Driver3.c ****     #if (Driver3_NUM_SEG > 8u)
1847:Generated_Source\PSoC5/Driver3.c ****         Driver3_segMBuffer[position] = HI8(charDisplay);
1848:Generated_Source\PSoC5/Driver3.c ****     #endif /* (Driver3_NUM_SEG > 8u) */
1849:Generated_Source\PSoC5/Driver3.c ****     }
1850:Generated_Source\PSoC5/Driver3.c **** }
1851:Generated_Source\PSoC5/Driver3.c **** 
1852:Generated_Source\PSoC5/Driver3.c **** 
1853:Generated_Source\PSoC5/Driver3.c **** /*******************************************************************************
1854:Generated_Source\PSoC5/Driver3.c **** * Function Name: Driver3_Write14SegDigitDec
1855:Generated_Source\PSoC5/Driver3.c **** ********************************************************************************
1856:Generated_Source\PSoC5/Driver3.c **** *
1857:Generated_Source\PSoC5/Driver3.c **** * Summary:
1858:Generated_Source\PSoC5/Driver3.c **** *  Displays a single digit on the specified display. The number in 'digit' 
1859:Generated_Source\PSoC5/Driver3.c **** *  (0-9) is placed on 'position'.
1860:Generated_Source\PSoC5/Driver3.c **** *
1861:Generated_Source\PSoC5/Driver3.c **** * Parameters:
1862:Generated_Source\PSoC5/Driver3.c **** *  uint8 digit: A number between 0 and 9 to display.
1863:Generated_Source\PSoC5/Driver3.c **** *  uint8 position: Position of the display in which to place the number.
1864:Generated_Source\PSoC5/Driver3.c **** *
1865:Generated_Source\PSoC5/Driver3.c **** * Return:
1866:Generated_Source\PSoC5/Driver3.c **** *  None
1867:Generated_Source\PSoC5/Driver3.c **** *
1868:Generated_Source\PSoC5/Driver3.c **** * Side effects:
1869:Generated_Source\PSoC5/Driver3.c **** *  None
1870:Generated_Source\PSoC5/Driver3.c **** *
1871:Generated_Source\PSoC5/Driver3.c **** *******************************************************************************/
1872:Generated_Source\PSoC5/Driver3.c **** void Driver3_Write14SegDigitDec(uint8 digit, uint8 position)
1873:Generated_Source\PSoC5/Driver3.c **** 
1874:Generated_Source\PSoC5/Driver3.c **** {
1875:Generated_Source\PSoC5/Driver3.c ****     uint16 charDisplay;
1876:Generated_Source\PSoC5/Driver3.c ****     
1877:Generated_Source\PSoC5/Driver3.c ****     if((digit < 10u) && (position < Driver3_NUM_COM))
1878:Generated_Source\PSoC5/Driver3.c ****     {
ARM GAS  C:\Users\tmj32\AppData\Local\Temp\cchH8kkE.s 			page 49


1879:Generated_Source\PSoC5/Driver3.c ****         charDisplay = Driver3_EncodeNumber14Seg(digit);
1880:Generated_Source\PSoC5/Driver3.c ****         Driver3_segLBuffer[position] = LO8(charDisplay);
1881:Generated_Source\PSoC5/Driver3.c ****     #if (Driver3_NUM_SEG > 8u)
1882:Generated_Source\PSoC5/Driver3.c ****         Driver3_segMBuffer[position] = HI8(charDisplay);
1883:Generated_Source\PSoC5/Driver3.c ****     #endif /* (Driver3_NUM_SEG > 8u) */
1884:Generated_Source\PSoC5/Driver3.c ****     }
1885:Generated_Source\PSoC5/Driver3.c **** }
1886:Generated_Source\PSoC5/Driver3.c **** 
1887:Generated_Source\PSoC5/Driver3.c **** 
1888:Generated_Source\PSoC5/Driver3.c **** /*******************************************************************************
1889:Generated_Source\PSoC5/Driver3.c **** * Function Name: Driver3_Write14SegDigitHex
1890:Generated_Source\PSoC5/Driver3.c **** ********************************************************************************
1891:Generated_Source\PSoC5/Driver3.c **** *
1892:Generated_Source\PSoC5/Driver3.c **** * Summary:
1893:Generated_Source\PSoC5/Driver3.c **** *  Displays a single digit at the specified position. The number in 'digit' 
1894:Generated_Source\PSoC5/Driver3.c **** *  (0-F) is placed on 'position'.
1895:Generated_Source\PSoC5/Driver3.c **** *
1896:Generated_Source\PSoC5/Driver3.c **** * Parameters:
1897:Generated_Source\PSoC5/Driver3.c **** *  uint8 digit: A number between 0x0 and 0xF (0 to 15)
1898:Generated_Source\PSoC5/Driver3.c **** *  uint8 position: The position in which to place the number.
1899:Generated_Source\PSoC5/Driver3.c **** *
1900:Generated_Source\PSoC5/Driver3.c **** * Return:
1901:Generated_Source\PSoC5/Driver3.c **** *  None
1902:Generated_Source\PSoC5/Driver3.c **** *
1903:Generated_Source\PSoC5/Driver3.c **** * Side effects:
1904:Generated_Source\PSoC5/Driver3.c **** *  None
1905:Generated_Source\PSoC5/Driver3.c **** *
1906:Generated_Source\PSoC5/Driver3.c **** *******************************************************************************/
1907:Generated_Source\PSoC5/Driver3.c **** void Driver3_Write14SegDigitHex(uint8 digit, uint8 position)
1908:Generated_Source\PSoC5/Driver3.c **** 
1909:Generated_Source\PSoC5/Driver3.c **** {
1910:Generated_Source\PSoC5/Driver3.c ****     uint16 charDisplay;
1911:Generated_Source\PSoC5/Driver3.c **** 
1912:Generated_Source\PSoC5/Driver3.c ****     if(position < Driver3_NUM_COM)
1913:Generated_Source\PSoC5/Driver3.c ****     {
1914:Generated_Source\PSoC5/Driver3.c ****         charDisplay = Driver3_EncodeNumber14Seg(digit);
1915:Generated_Source\PSoC5/Driver3.c ****         Driver3_segLBuffer[position] = LO8(charDisplay);
1916:Generated_Source\PSoC5/Driver3.c ****     #if (Driver3_NUM_SEG > 8u)
1917:Generated_Source\PSoC5/Driver3.c ****         Driver3_segMBuffer[position] = HI8(charDisplay);
1918:Generated_Source\PSoC5/Driver3.c ****     #endif /* (Driver3_NUM_SEG > 8u) */
1919:Generated_Source\PSoC5/Driver3.c ****     }
1920:Generated_Source\PSoC5/Driver3.c **** }
1921:Generated_Source\PSoC5/Driver3.c **** 
1922:Generated_Source\PSoC5/Driver3.c **** 
1923:Generated_Source\PSoC5/Driver3.c **** /*******************************************************************************
1924:Generated_Source\PSoC5/Driver3.c **** * Function Name: Driver3_Write16SegNumberDec
1925:Generated_Source\PSoC5/Driver3.c **** ********************************************************************************
1926:Generated_Source\PSoC5/Driver3.c **** *
1927:Generated_Source\PSoC5/Driver3.c **** * Summary:
1928:Generated_Source\PSoC5/Driver3.c **** *  Displays a signed integer up to 8 characters long, starting at 'position' 
1929:Generated_Source\PSoC5/Driver3.c **** *  and extending for 'digits' characters. The negative sign will take an extra 
1930:Generated_Source\PSoC5/Driver3.c **** *  digit if it is required.
1931:Generated_Source\PSoC5/Driver3.c **** *
1932:Generated_Source\PSoC5/Driver3.c **** * Parameters:
1933:Generated_Source\PSoC5/Driver3.c **** *  int32 number: a signed integer number to display. It is the responsibility 
1934:Generated_Source\PSoC5/Driver3.c **** *                of the user to ensure that the display has enough digits to 
1935:Generated_Source\PSoC5/Driver3.c **** *                accurately represent the number passed to this function. If 
ARM GAS  C:\Users\tmj32\AppData\Local\Temp\cchH8kkE.s 			page 50


1936:Generated_Source\PSoC5/Driver3.c **** *                not, the least significant digits will be displayed. Also 
1937:Generated_Source\PSoC5/Driver3.c **** *                note that a negative number will require 1 more digit than the
1938:Generated_Source\PSoC5/Driver3.c **** *                equivalent positive number to display the negative sign.
1939:Generated_Source\PSoC5/Driver3.c **** *  uint8 position: Digit position of the Display/Common RAM to start.
1940:Generated_Source\PSoC5/Driver3.c **** *  uint8 digits: The number of digits you wish to use to display the value 
1941:Generated_Source\PSoC5/Driver3.c **** *                passed into the function. The negative sign will take an extra 
1942:Generated_Source\PSoC5/Driver3.c **** *                digit if it is required.
1943:Generated_Source\PSoC5/Driver3.c **** *  uint8 alignment: How to align the provided number in the allocated digits.
1944:Generated_Source\PSoC5/Driver3.c **** *       RIGHT_ALIGN - Least significant digit occupies the rightmost digit
1945:Generated_Source\PSoC5/Driver3.c **** *                     (position + digits). Unused digits are turned off unless
1946:Generated_Source\PSoC5/Driver3.c **** *                     ZERO_PAD enabled.
1947:Generated_Source\PSoC5/Driver3.c **** *       LEFT_ALIGN - Most significant digit (or negative sign) occupies the
1948:Generated_Source\PSoC5/Driver3.c **** *                    digit specified by position. Unused digits are turned off.
1949:Generated_Source\PSoC5/Driver3.c **** *       ZERO_PAD - Unused digits to the left are padded with leading zeros.
1950:Generated_Source\PSoC5/Driver3.c **** * Return:
1951:Generated_Source\PSoC5/Driver3.c **** *  None
1952:Generated_Source\PSoC5/Driver3.c **** *
1953:Generated_Source\PSoC5/Driver3.c **** * Side effects:
1954:Generated_Source\PSoC5/Driver3.c **** *  None
1955:Generated_Source\PSoC5/Driver3.c **** *
1956:Generated_Source\PSoC5/Driver3.c **** *******************************************************************************/
1957:Generated_Source\PSoC5/Driver3.c **** void Driver3_Write16SegNumberDec(int32 number, uint8 position, uint8 digits, uint8 alignment)
1958:Generated_Source\PSoC5/Driver3.c **** 
1959:Generated_Source\PSoC5/Driver3.c **** {
1960:Generated_Source\PSoC5/Driver3.c ****     uint8 i;
1961:Generated_Source\PSoC5/Driver3.c ****     uint8 relPosition;
1962:Generated_Source\PSoC5/Driver3.c ****     uint8 numberSign;
1963:Generated_Source\PSoC5/Driver3.c ****     uint8 selectVal;
1964:Generated_Source\PSoC5/Driver3.c ****     uint8 zeroCount = 0u;
1965:Generated_Source\PSoC5/Driver3.c ****     uint16 bufArray[8u] = {0u};
1966:Generated_Source\PSoC5/Driver3.c ****     uint32 numberVal;
1967:Generated_Source\PSoC5/Driver3.c ****     
1968:Generated_Source\PSoC5/Driver3.c ****     /* Routine to extract the sign and to convert to unsigned */
1969:Generated_Source\PSoC5/Driver3.c ****     if(number >= Driver3_ZERO_NEG)
1970:Generated_Source\PSoC5/Driver3.c ****     {
1971:Generated_Source\PSoC5/Driver3.c ****         numberVal = (uint32)number;
1972:Generated_Source\PSoC5/Driver3.c ****         numberSign = Driver3_UNSIGNED;
1973:Generated_Source\PSoC5/Driver3.c ****     }
1974:Generated_Source\PSoC5/Driver3.c ****     else
1975:Generated_Source\PSoC5/Driver3.c ****     {
1976:Generated_Source\PSoC5/Driver3.c ****         numberVal = (uint32)(-number);
1977:Generated_Source\PSoC5/Driver3.c ****         numberSign = Driver3_SIGNED;
1978:Generated_Source\PSoC5/Driver3.c ****     }
1979:Generated_Source\PSoC5/Driver3.c ****     
1980:Generated_Source\PSoC5/Driver3.c ****     /* Fill up the temporary array */
1981:Generated_Source\PSoC5/Driver3.c ****     for(i = digits; i > 0u; i--)
1982:Generated_Source\PSoC5/Driver3.c ****     {
1983:Generated_Source\PSoC5/Driver3.c ****         selectVal = (uint8)(numberVal % 10u);
1984:Generated_Source\PSoC5/Driver3.c ****         bufArray[i-1u] = Driver3_EncodeNumber16Seg(selectVal);
1985:Generated_Source\PSoC5/Driver3.c ****         numberVal = numberVal / 10u;
1986:Generated_Source\PSoC5/Driver3.c ****     }
1987:Generated_Source\PSoC5/Driver3.c ****     
1988:Generated_Source\PSoC5/Driver3.c ****     /* Clean up the array and place sign if needed */
1989:Generated_Source\PSoC5/Driver3.c ****     if(alignment == Driver3_ZERO_PAD)
1990:Generated_Source\PSoC5/Driver3.c ****     {
1991:Generated_Source\PSoC5/Driver3.c ****         if(numberSign == Driver3_SIGNED)
1992:Generated_Source\PSoC5/Driver3.c ****         {
ARM GAS  C:\Users\tmj32\AppData\Local\Temp\cchH8kkE.s 			page 51


1993:Generated_Source\PSoC5/Driver3.c ****             /* Place sign on the MSB */
1994:Generated_Source\PSoC5/Driver3.c ****             bufArray[0u] = Driver3_EncodeChar16Seg('-');
1995:Generated_Source\PSoC5/Driver3.c ****         }
1996:Generated_Source\PSoC5/Driver3.c ****     }
1997:Generated_Source\PSoC5/Driver3.c ****     else
1998:Generated_Source\PSoC5/Driver3.c ****     {
1999:Generated_Source\PSoC5/Driver3.c ****         for(i = 0u; i < digits; i++)
2000:Generated_Source\PSoC5/Driver3.c ****         {
2001:Generated_Source\PSoC5/Driver3.c ****             if (bufArray[i] != Driver3_ZERO_16CHAR)
2002:Generated_Source\PSoC5/Driver3.c ****             {
2003:Generated_Source\PSoC5/Driver3.c ****                 if(numberSign == Driver3_SIGNED)
2004:Generated_Source\PSoC5/Driver3.c ****                 {
2005:Generated_Source\PSoC5/Driver3.c ****                     if(i == 0u)
2006:Generated_Source\PSoC5/Driver3.c ****                     {
2007:Generated_Source\PSoC5/Driver3.c ****                         /* Place sign on the MSB */
2008:Generated_Source\PSoC5/Driver3.c ****                         bufArray[i] = Driver3_EncodeChar16Seg('-');
2009:Generated_Source\PSoC5/Driver3.c ****                     }
2010:Generated_Source\PSoC5/Driver3.c ****                     else
2011:Generated_Source\PSoC5/Driver3.c ****                     {
2012:Generated_Source\PSoC5/Driver3.c ****                         /* Place sign before MSB */
2013:Generated_Source\PSoC5/Driver3.c ****                         bufArray[i-1u] = Driver3_EncodeChar16Seg('-');
2014:Generated_Source\PSoC5/Driver3.c ****                     }
2015:Generated_Source\PSoC5/Driver3.c ****                 }
2016:Generated_Source\PSoC5/Driver3.c ****                 /* Exit when encountering non-zero number */
2017:Generated_Source\PSoC5/Driver3.c ****                 break;
2018:Generated_Source\PSoC5/Driver3.c ****             }
2019:Generated_Source\PSoC5/Driver3.c ****             else
2020:Generated_Source\PSoC5/Driver3.c ****             {
2021:Generated_Source\PSoC5/Driver3.c ****                 if(zeroCount != (digits - 1u))
2022:Generated_Source\PSoC5/Driver3.c ****                 {
2023:Generated_Source\PSoC5/Driver3.c ****                     /* Turn off the display */
2024:Generated_Source\PSoC5/Driver3.c ****                     bufArray[i] = Driver3_CLEAR_16;
2025:Generated_Source\PSoC5/Driver3.c ****                     zeroCount++;
2026:Generated_Source\PSoC5/Driver3.c ****                 }
2027:Generated_Source\PSoC5/Driver3.c ****             }    
2028:Generated_Source\PSoC5/Driver3.c ****         }
2029:Generated_Source\PSoC5/Driver3.c ****     }
2030:Generated_Source\PSoC5/Driver3.c ****     
2031:Generated_Source\PSoC5/Driver3.c ****     relPosition = position;
2032:Generated_Source\PSoC5/Driver3.c ****     
2033:Generated_Source\PSoC5/Driver3.c ****     /* Place the values in the segment array according to alignment */
2034:Generated_Source\PSoC5/Driver3.c ****     if(alignment == Driver3_LEFT_ALIGN)
2035:Generated_Source\PSoC5/Driver3.c ****     {
2036:Generated_Source\PSoC5/Driver3.c ****         for(i = 0u; i < digits; i++)
2037:Generated_Source\PSoC5/Driver3.c ****         {
2038:Generated_Source\PSoC5/Driver3.c ****             if(bufArray[i] != Driver3_CLEAR_16)
2039:Generated_Source\PSoC5/Driver3.c ****             {
2040:Generated_Source\PSoC5/Driver3.c ****                 if(relPosition < Driver3_NUM_COM)
2041:Generated_Source\PSoC5/Driver3.c ****                 {
2042:Generated_Source\PSoC5/Driver3.c ****                     /* Only show displays that are not empty */
2043:Generated_Source\PSoC5/Driver3.c ****                     Driver3_segLBuffer[relPosition] = LO8(bufArray[i]);
2044:Generated_Source\PSoC5/Driver3.c ****                 #if (Driver3_NUM_SEG > 8u)
2045:Generated_Source\PSoC5/Driver3.c ****                     Driver3_segMBuffer[relPosition] = HI8(bufArray[i]);
2046:Generated_Source\PSoC5/Driver3.c ****                 #endif /* (Driver3_NUM_SEG > 8u) */
2047:Generated_Source\PSoC5/Driver3.c ****                 }
2048:Generated_Source\PSoC5/Driver3.c ****                 relPosition++;
2049:Generated_Source\PSoC5/Driver3.c ****             }
ARM GAS  C:\Users\tmj32\AppData\Local\Temp\cchH8kkE.s 			page 52


2050:Generated_Source\PSoC5/Driver3.c ****         }
2051:Generated_Source\PSoC5/Driver3.c ****         /* Clear the rest of the positions to the right of value */
2052:Generated_Source\PSoC5/Driver3.c ****         while(relPosition < digits)
2053:Generated_Source\PSoC5/Driver3.c ****         {
2054:Generated_Source\PSoC5/Driver3.c ****             /* Only show displays that are not empty */
2055:Generated_Source\PSoC5/Driver3.c ****             Driver3_segLBuffer[relPosition] = Driver3_CLEAR;
2056:Generated_Source\PSoC5/Driver3.c ****             #if (Driver3_NUM_SEG > 8u)
2057:Generated_Source\PSoC5/Driver3.c ****                 Driver3_segMBuffer[relPosition] = Driver3_CLEAR;
2058:Generated_Source\PSoC5/Driver3.c ****             #endif /* (Driver3_NUM_SEG > 8u) */
2059:Generated_Source\PSoC5/Driver3.c ****             
2060:Generated_Source\PSoC5/Driver3.c ****             relPosition++;
2061:Generated_Source\PSoC5/Driver3.c ****         }
2062:Generated_Source\PSoC5/Driver3.c ****     }
2063:Generated_Source\PSoC5/Driver3.c ****     else
2064:Generated_Source\PSoC5/Driver3.c ****     {
2065:Generated_Source\PSoC5/Driver3.c ****         for(i = digits; i > 0u; i--)
2066:Generated_Source\PSoC5/Driver3.c ****         {
2067:Generated_Source\PSoC5/Driver3.c ****             if(((i + relPosition) - 1u) < Driver3_NUM_COM)
2068:Generated_Source\PSoC5/Driver3.c ****             {
2069:Generated_Source\PSoC5/Driver3.c ****                 Driver3_segLBuffer[(i + relPosition) - 1u] = LO8(bufArray[i-1u]);
2070:Generated_Source\PSoC5/Driver3.c ****             #if (Driver3_NUM_SEG > 8u)
2071:Generated_Source\PSoC5/Driver3.c ****                 Driver3_segMBuffer[(i + relPosition) - 1u] = HI8(bufArray[i-1u]);
2072:Generated_Source\PSoC5/Driver3.c ****             #endif /* (Driver3_NUM_SEG > 8u) */
2073:Generated_Source\PSoC5/Driver3.c ****             }
2074:Generated_Source\PSoC5/Driver3.c ****         }
2075:Generated_Source\PSoC5/Driver3.c ****     }
2076:Generated_Source\PSoC5/Driver3.c **** }
2077:Generated_Source\PSoC5/Driver3.c **** 
2078:Generated_Source\PSoC5/Driver3.c **** 
2079:Generated_Source\PSoC5/Driver3.c **** /*******************************************************************************
2080:Generated_Source\PSoC5/Driver3.c **** * Function Name: Driver3_Write16SegNumberHex
2081:Generated_Source\PSoC5/Driver3.c **** ********************************************************************************
2082:Generated_Source\PSoC5/Driver3.c **** *
2083:Generated_Source\PSoC5/Driver3.c **** * Summary:
2084:Generated_Source\PSoC5/Driver3.c **** *  Displays a hexadecimal number up to 8 characters long, starting at 'position'
2085:Generated_Source\PSoC5/Driver3.c **** *  and extending for 'digits' characters. If you do not use the correct number 
2086:Generated_Source\PSoC5/Driver3.c **** *  of digits for your number, the least significant digits will be displayed. 
2087:Generated_Source\PSoC5/Driver3.c **** *  For example, if value is 0xDEADBEEF, display is 0 and digits is 4, the result
2088:Generated_Source\PSoC5/Driver3.c **** *  will be: BEEF.
2089:Generated_Source\PSoC5/Driver3.c **** *
2090:Generated_Source\PSoC5/Driver3.c **** * Parameters:
2091:Generated_Source\PSoC5/Driver3.c **** *  uint32 number: The hexadecimal number to display. It is the responsibility of
2092:Generated_Source\PSoC5/Driver3.c **** *  the user to ensure that the display has enough digits to accurately represent
2093:Generated_Source\PSoC5/Driver3.c **** *  the number passed to this function.
2094:Generated_Source\PSoC5/Driver3.c **** *  uint8 position: Position of the Display/Common to start number.
2095:Generated_Source\PSoC5/Driver3.c **** *  uint8 digits: The number of digits you wish to use to display the value 
2096:Generated_Source\PSoC5/Driver3.c **** *                passed into the function.
2097:Generated_Source\PSoC5/Driver3.c **** *  uint8 alignment: How to align the provided number in the allocated digits.
2098:Generated_Source\PSoC5/Driver3.c **** *       RIGHT_ALIGN - Least significant digit occupies the rightmost digit
2099:Generated_Source\PSoC5/Driver3.c **** *                     (position + digits). Unused digits are turned off unless
2100:Generated_Source\PSoC5/Driver3.c **** *                     ZERO_PAD enabled.
2101:Generated_Source\PSoC5/Driver3.c **** *       LEFT_ALIGN - Most significant digit (or negative sign) occupies the
2102:Generated_Source\PSoC5/Driver3.c **** *                    digit specified by position. Unused digits are turned off.
2103:Generated_Source\PSoC5/Driver3.c **** *       ZERO_PAD - Unused digits to the left are padded with leading zeros.
2104:Generated_Source\PSoC5/Driver3.c **** * Return:
2105:Generated_Source\PSoC5/Driver3.c **** *  None
2106:Generated_Source\PSoC5/Driver3.c **** *
ARM GAS  C:\Users\tmj32\AppData\Local\Temp\cchH8kkE.s 			page 53


2107:Generated_Source\PSoC5/Driver3.c **** * Side effects:
2108:Generated_Source\PSoC5/Driver3.c **** *  None
2109:Generated_Source\PSoC5/Driver3.c **** *
2110:Generated_Source\PSoC5/Driver3.c **** *******************************************************************************/
2111:Generated_Source\PSoC5/Driver3.c **** void Driver3_Write16SegNumberHex(uint32 number, uint8 position, uint8 digits, uint8 alignment)
2112:Generated_Source\PSoC5/Driver3.c **** 
2113:Generated_Source\PSoC5/Driver3.c **** {
2114:Generated_Source\PSoC5/Driver3.c ****     uint8 i;
2115:Generated_Source\PSoC5/Driver3.c ****     uint8 relPosition;
2116:Generated_Source\PSoC5/Driver3.c ****     uint8 selectVal;
2117:Generated_Source\PSoC5/Driver3.c ****     uint16 bufArray[8u] = {0u};
2118:Generated_Source\PSoC5/Driver3.c ****     uint32 numberVal;
2119:Generated_Source\PSoC5/Driver3.c ****     
2120:Generated_Source\PSoC5/Driver3.c ****     numberVal = number;
2121:Generated_Source\PSoC5/Driver3.c ****     
2122:Generated_Source\PSoC5/Driver3.c ****     /* Fill up the temporary array */
2123:Generated_Source\PSoC5/Driver3.c ****     for(i = digits; i > 0u; i--)
2124:Generated_Source\PSoC5/Driver3.c ****     {
2125:Generated_Source\PSoC5/Driver3.c ****         selectVal = (uint8)((uint8)numberVal & Driver3_NIBBLE_MASK);
2126:Generated_Source\PSoC5/Driver3.c ****         bufArray[i-1u] = Driver3_EncodeNumber16Seg(selectVal);
2127:Generated_Source\PSoC5/Driver3.c ****         numberVal = (uint32)((uint32)numberVal >> Driver3_SHIFT_NIBBLE);
2128:Generated_Source\PSoC5/Driver3.c ****     }
2129:Generated_Source\PSoC5/Driver3.c ****     
2130:Generated_Source\PSoC5/Driver3.c ****     /* Clean up the array and place sign if needed */
2131:Generated_Source\PSoC5/Driver3.c ****     for(i = 0u; i < digits; i++)
2132:Generated_Source\PSoC5/Driver3.c ****     {
2133:Generated_Source\PSoC5/Driver3.c ****         if (bufArray[i] != Driver3_ZERO_16CHAR)
2134:Generated_Source\PSoC5/Driver3.c ****         {
2135:Generated_Source\PSoC5/Driver3.c ****             /* Exit when encountering non-zero number */
2136:Generated_Source\PSoC5/Driver3.c ****             break;
2137:Generated_Source\PSoC5/Driver3.c ****         }
2138:Generated_Source\PSoC5/Driver3.c ****         else
2139:Generated_Source\PSoC5/Driver3.c ****         {
2140:Generated_Source\PSoC5/Driver3.c ****             /* Turn off the display */
2141:Generated_Source\PSoC5/Driver3.c ****             bufArray[i] = Driver3_CLEAR_16;
2142:Generated_Source\PSoC5/Driver3.c ****         }    
2143:Generated_Source\PSoC5/Driver3.c ****     }
2144:Generated_Source\PSoC5/Driver3.c ****     
2145:Generated_Source\PSoC5/Driver3.c ****     relPosition = position;
2146:Generated_Source\PSoC5/Driver3.c ****     
2147:Generated_Source\PSoC5/Driver3.c ****     /* Place the values in the segment array according to alignment */
2148:Generated_Source\PSoC5/Driver3.c ****     if(alignment == Driver3_LEFT_ALIGN)
2149:Generated_Source\PSoC5/Driver3.c ****     {
2150:Generated_Source\PSoC5/Driver3.c ****         for(i = 0u; i < digits; i++)
2151:Generated_Source\PSoC5/Driver3.c ****         {
2152:Generated_Source\PSoC5/Driver3.c ****             if(bufArray[i] != Driver3_CLEAR_16)
2153:Generated_Source\PSoC5/Driver3.c ****             {
2154:Generated_Source\PSoC5/Driver3.c ****                 if(relPosition < Driver3_NUM_COM)
2155:Generated_Source\PSoC5/Driver3.c ****                 {
2156:Generated_Source\PSoC5/Driver3.c ****                     /* Only show displays that are not empty */
2157:Generated_Source\PSoC5/Driver3.c ****                     Driver3_segLBuffer[relPosition] = LO8(bufArray[i]);
2158:Generated_Source\PSoC5/Driver3.c ****                 #if (Driver3_NUM_SEG > 8u)
2159:Generated_Source\PSoC5/Driver3.c ****                     Driver3_segMBuffer[relPosition] = HI8(bufArray[i]);
2160:Generated_Source\PSoC5/Driver3.c ****                 #endif /* (Driver3_NUM_SEG > 8u) */
2161:Generated_Source\PSoC5/Driver3.c ****                 }
2162:Generated_Source\PSoC5/Driver3.c ****                 relPosition++;
2163:Generated_Source\PSoC5/Driver3.c ****             }
ARM GAS  C:\Users\tmj32\AppData\Local\Temp\cchH8kkE.s 			page 54


2164:Generated_Source\PSoC5/Driver3.c ****         }
2165:Generated_Source\PSoC5/Driver3.c ****         /* Clear the rest of the positions to the right of value */
2166:Generated_Source\PSoC5/Driver3.c ****         while(relPosition < digits)
2167:Generated_Source\PSoC5/Driver3.c ****         {
2168:Generated_Source\PSoC5/Driver3.c ****             /* Only show displays that are not empty */
2169:Generated_Source\PSoC5/Driver3.c ****             Driver3_segLBuffer[relPosition] = Driver3_CLEAR;
2170:Generated_Source\PSoC5/Driver3.c ****             #if (Driver3_NUM_SEG > 8u)
2171:Generated_Source\PSoC5/Driver3.c ****                 Driver3_segMBuffer[relPosition] = Driver3_CLEAR;
2172:Generated_Source\PSoC5/Driver3.c ****             #endif /* (Driver3_NUM_SEG > 8u) */
2173:Generated_Source\PSoC5/Driver3.c ****             
2174:Generated_Source\PSoC5/Driver3.c ****             relPosition++;
2175:Generated_Source\PSoC5/Driver3.c ****         }
2176:Generated_Source\PSoC5/Driver3.c ****     }
2177:Generated_Source\PSoC5/Driver3.c ****     else
2178:Generated_Source\PSoC5/Driver3.c ****     {
2179:Generated_Source\PSoC5/Driver3.c ****         for(i = digits; i > 0u; i--)
2180:Generated_Source\PSoC5/Driver3.c ****         {
2181:Generated_Source\PSoC5/Driver3.c ****             if(((i + relPosition) - 1u) < Driver3_NUM_COM)
2182:Generated_Source\PSoC5/Driver3.c ****             {
2183:Generated_Source\PSoC5/Driver3.c ****                 Driver3_segLBuffer[(i + relPosition) - 1u] = LO8(bufArray[i-1u]);
2184:Generated_Source\PSoC5/Driver3.c ****             #if (Driver3_NUM_SEG > 8u)
2185:Generated_Source\PSoC5/Driver3.c ****                 Driver3_segMBuffer[(i + relPosition) - 1u] = HI8(bufArray[i-1u]);
2186:Generated_Source\PSoC5/Driver3.c ****             #endif /* (Driver3_NUM_SEG > 8u) */
2187:Generated_Source\PSoC5/Driver3.c ****             }
2188:Generated_Source\PSoC5/Driver3.c ****         }
2189:Generated_Source\PSoC5/Driver3.c ****     }
2190:Generated_Source\PSoC5/Driver3.c **** }
2191:Generated_Source\PSoC5/Driver3.c **** 
2192:Generated_Source\PSoC5/Driver3.c **** 
2193:Generated_Source\PSoC5/Driver3.c **** /*******************************************************************************
2194:Generated_Source\PSoC5/Driver3.c **** * Function Name: Driver3_WriteString16Seg
2195:Generated_Source\PSoC5/Driver3.c **** ********************************************************************************
2196:Generated_Source\PSoC5/Driver3.c **** *
2197:Generated_Source\PSoC5/Driver3.c **** * Summary:
2198:Generated_Source\PSoC5/Driver3.c **** *  Displays a null terminated string starting at 'position' and ending at either
2199:Generated_Source\PSoC5/Driver3.c **** *  the  the string or the  the display. The displayable characters 
2200:Generated_Source\PSoC5/Driver3.c **** *  are the same for the LED_Driver_PutCharacter() function. Non-displayable
2201:Generated_Source\PSoC5/Driver3.c **** *  characters will produce a blank space.
2202:Generated_Source\PSoC5/Driver3.c **** *
2203:Generated_Source\PSoC5/Driver3.c **** * Parameters:
2204:Generated_Source\PSoC5/Driver3.c **** *  char8 const character[]: The null terminated string to be displayed.
2205:Generated_Source\PSoC5/Driver3.c **** *  uint8 position: The position to start the string.
2206:Generated_Source\PSoC5/Driver3.c **** * Return:
2207:Generated_Source\PSoC5/Driver3.c **** *  None
2208:Generated_Source\PSoC5/Driver3.c **** *
2209:Generated_Source\PSoC5/Driver3.c **** * Side effects:
2210:Generated_Source\PSoC5/Driver3.c **** *  None
2211:Generated_Source\PSoC5/Driver3.c **** *
2212:Generated_Source\PSoC5/Driver3.c **** *******************************************************************************/
2213:Generated_Source\PSoC5/Driver3.c **** void Driver3_WriteString16Seg(char8 const character[], uint8 position)
2214:Generated_Source\PSoC5/Driver3.c **** 
2215:Generated_Source\PSoC5/Driver3.c **** {
2216:Generated_Source\PSoC5/Driver3.c ****     uint8 currPosition;
2217:Generated_Source\PSoC5/Driver3.c ****     uint8 sizeLimit;
2218:Generated_Source\PSoC5/Driver3.c ****     uint8 i = 0u;
2219:Generated_Source\PSoC5/Driver3.c ****     uint16 charDisplay;
2220:Generated_Source\PSoC5/Driver3.c ****     
ARM GAS  C:\Users\tmj32\AppData\Local\Temp\cchH8kkE.s 			page 55


2221:Generated_Source\PSoC5/Driver3.c ****     sizeLimit = (uint8)(strlen(character)) + position;
2222:Generated_Source\PSoC5/Driver3.c ****     
2223:Generated_Source\PSoC5/Driver3.c ****     for(currPosition = position; currPosition < Driver3_NUM_COM; currPosition++)
2224:Generated_Source\PSoC5/Driver3.c ****     {
2225:Generated_Source\PSoC5/Driver3.c ****         if(currPosition < sizeLimit)
2226:Generated_Source\PSoC5/Driver3.c ****         {
2227:Generated_Source\PSoC5/Driver3.c ****             charDisplay = Driver3_EncodeChar16Seg(character[i]);
2228:Generated_Source\PSoC5/Driver3.c ****             Driver3_segLBuffer[currPosition] = LO8(charDisplay);
2229:Generated_Source\PSoC5/Driver3.c ****             #if (Driver3_NUM_SEG > 8u)
2230:Generated_Source\PSoC5/Driver3.c ****                 Driver3_segMBuffer[currPosition] = HI8(charDisplay);
2231:Generated_Source\PSoC5/Driver3.c ****             #endif /* (Driver3_NUM_SEG > 8u) */
2232:Generated_Source\PSoC5/Driver3.c ****             i++;
2233:Generated_Source\PSoC5/Driver3.c ****         }
2234:Generated_Source\PSoC5/Driver3.c ****     }
2235:Generated_Source\PSoC5/Driver3.c **** }
2236:Generated_Source\PSoC5/Driver3.c **** 
2237:Generated_Source\PSoC5/Driver3.c **** 
2238:Generated_Source\PSoC5/Driver3.c **** /*******************************************************************************
2239:Generated_Source\PSoC5/Driver3.c **** * Function Name: Driver3_PutChar16Seg
2240:Generated_Source\PSoC5/Driver3.c **** ********************************************************************************
2241:Generated_Source\PSoC5/Driver3.c **** *
2242:Generated_Source\PSoC5/Driver3.c **** * Summary:
2243:Generated_Source\PSoC5/Driver3.c **** *  Displays an ascii encoded character at 'position'. This function can display 
2244:Generated_Source\PSoC5/Driver3.c **** *  all alphanumeric characters. The function can also display '-', '.', '_', 
2245:Generated_Source\PSoC5/Driver3.c **** *  ' ', and '='. All unknown characters are displayed as a space.
2246:Generated_Source\PSoC5/Driver3.c **** *
2247:Generated_Source\PSoC5/Driver3.c **** * Parameters:
2248:Generated_Source\PSoC5/Driver3.c **** *  char8 character: ASCII character.
2249:Generated_Source\PSoC5/Driver3.c **** *  uint8 position: The position of the character.
2250:Generated_Source\PSoC5/Driver3.c **** * Return:
2251:Generated_Source\PSoC5/Driver3.c **** *  None
2252:Generated_Source\PSoC5/Driver3.c **** *
2253:Generated_Source\PSoC5/Driver3.c **** * Side effects:
2254:Generated_Source\PSoC5/Driver3.c **** *  None
2255:Generated_Source\PSoC5/Driver3.c **** *
2256:Generated_Source\PSoC5/Driver3.c **** *******************************************************************************/
2257:Generated_Source\PSoC5/Driver3.c **** void Driver3_PutChar16Seg(char8 character , uint8 position)
2258:Generated_Source\PSoC5/Driver3.c **** 
2259:Generated_Source\PSoC5/Driver3.c **** {
2260:Generated_Source\PSoC5/Driver3.c ****     uint16 charDisplay;
2261:Generated_Source\PSoC5/Driver3.c ****     
2262:Generated_Source\PSoC5/Driver3.c ****     if(position < Driver3_NUM_COM)
2263:Generated_Source\PSoC5/Driver3.c ****     {
2264:Generated_Source\PSoC5/Driver3.c ****         charDisplay = Driver3_EncodeChar16Seg(character);
2265:Generated_Source\PSoC5/Driver3.c ****         Driver3_segLBuffer[position] = LO8(charDisplay);
2266:Generated_Source\PSoC5/Driver3.c ****         #if (Driver3_NUM_SEG > 8u)
2267:Generated_Source\PSoC5/Driver3.c ****             Driver3_segMBuffer[position] = HI8(charDisplay);
2268:Generated_Source\PSoC5/Driver3.c ****         #endif /* (Driver3_NUM_SEG > 8u) */
2269:Generated_Source\PSoC5/Driver3.c ****     }
2270:Generated_Source\PSoC5/Driver3.c **** }
2271:Generated_Source\PSoC5/Driver3.c **** 
2272:Generated_Source\PSoC5/Driver3.c **** 
2273:Generated_Source\PSoC5/Driver3.c **** /*******************************************************************************
2274:Generated_Source\PSoC5/Driver3.c **** * Function Name: Driver3_Write16SegDigitDec
2275:Generated_Source\PSoC5/Driver3.c **** ********************************************************************************
2276:Generated_Source\PSoC5/Driver3.c **** *
2277:Generated_Source\PSoC5/Driver3.c **** * Summary:
ARM GAS  C:\Users\tmj32\AppData\Local\Temp\cchH8kkE.s 			page 56


2278:Generated_Source\PSoC5/Driver3.c **** *  Displays a single digit on the specified display. The number in 'digit' 
2279:Generated_Source\PSoC5/Driver3.c **** *  (0-9) is placed on 'position'.
2280:Generated_Source\PSoC5/Driver3.c **** *
2281:Generated_Source\PSoC5/Driver3.c **** * Parameters:
2282:Generated_Source\PSoC5/Driver3.c **** *  uint8 digit: A number between 0 and 9 to display.
2283:Generated_Source\PSoC5/Driver3.c **** *  uint8 position: Position of the display in which to place the number.
2284:Generated_Source\PSoC5/Driver3.c **** * Return:
2285:Generated_Source\PSoC5/Driver3.c **** *  None
2286:Generated_Source\PSoC5/Driver3.c **** *
2287:Generated_Source\PSoC5/Driver3.c **** * Side effects:
2288:Generated_Source\PSoC5/Driver3.c **** *  None
2289:Generated_Source\PSoC5/Driver3.c **** *
2290:Generated_Source\PSoC5/Driver3.c **** *******************************************************************************/
2291:Generated_Source\PSoC5/Driver3.c **** void Driver3_Write16SegDigitDec(uint8 digit, uint8 position)
2292:Generated_Source\PSoC5/Driver3.c **** 
2293:Generated_Source\PSoC5/Driver3.c **** {
2294:Generated_Source\PSoC5/Driver3.c ****     uint16 charDisplay;
2295:Generated_Source\PSoC5/Driver3.c ****     
2296:Generated_Source\PSoC5/Driver3.c ****     if((digit < 10u) && (position < Driver3_NUM_COM))
2297:Generated_Source\PSoC5/Driver3.c ****     {
2298:Generated_Source\PSoC5/Driver3.c ****         charDisplay = Driver3_EncodeNumber16Seg(digit);
2299:Generated_Source\PSoC5/Driver3.c ****         Driver3_segLBuffer[position] = LO8(charDisplay);
2300:Generated_Source\PSoC5/Driver3.c ****         #if (Driver3_NUM_SEG > 8u)
2301:Generated_Source\PSoC5/Driver3.c ****             Driver3_segMBuffer[position] = HI8(charDisplay);
2302:Generated_Source\PSoC5/Driver3.c ****         #endif /* (Driver3_NUM_SEG > 8u) */
2303:Generated_Source\PSoC5/Driver3.c ****     }
2304:Generated_Source\PSoC5/Driver3.c **** }
2305:Generated_Source\PSoC5/Driver3.c **** 
2306:Generated_Source\PSoC5/Driver3.c **** 
2307:Generated_Source\PSoC5/Driver3.c **** /*******************************************************************************
2308:Generated_Source\PSoC5/Driver3.c **** * Function Name: Driver3_Write16SegDigitHex
2309:Generated_Source\PSoC5/Driver3.c **** ********************************************************************************
2310:Generated_Source\PSoC5/Driver3.c **** *
2311:Generated_Source\PSoC5/Driver3.c **** * Summary:
2312:Generated_Source\PSoC5/Driver3.c **** *  Displays a single digit at the specified position. The number in 'digit' 
2313:Generated_Source\PSoC5/Driver3.c **** *  (0-F) is placed on 'position'.
2314:Generated_Source\PSoC5/Driver3.c **** *
2315:Generated_Source\PSoC5/Driver3.c **** * Parameters:
2316:Generated_Source\PSoC5/Driver3.c **** *  uint8 digit: A number between 0x0 and 0xF (0 to 15).
2317:Generated_Source\PSoC5/Driver3.c **** *  uint8 position: The position in which to place the number.
2318:Generated_Source\PSoC5/Driver3.c **** * Return:
2319:Generated_Source\PSoC5/Driver3.c **** *  None
2320:Generated_Source\PSoC5/Driver3.c **** *
2321:Generated_Source\PSoC5/Driver3.c **** * Side effects:
2322:Generated_Source\PSoC5/Driver3.c **** *  None
2323:Generated_Source\PSoC5/Driver3.c **** *
2324:Generated_Source\PSoC5/Driver3.c **** *******************************************************************************/
2325:Generated_Source\PSoC5/Driver3.c **** void Driver3_Write16SegDigitHex(uint8 digit, uint8 position)
2326:Generated_Source\PSoC5/Driver3.c **** 
2327:Generated_Source\PSoC5/Driver3.c **** {
2328:Generated_Source\PSoC5/Driver3.c ****     uint16 charDisplay;
2329:Generated_Source\PSoC5/Driver3.c **** 
2330:Generated_Source\PSoC5/Driver3.c ****     if(position < Driver3_NUM_COM)
2331:Generated_Source\PSoC5/Driver3.c ****     {
2332:Generated_Source\PSoC5/Driver3.c ****         charDisplay = Driver3_EncodeNumber16Seg(digit);
2333:Generated_Source\PSoC5/Driver3.c ****         Driver3_segLBuffer[position] = LO8(charDisplay);
2334:Generated_Source\PSoC5/Driver3.c ****         #if (Driver3_NUM_SEG > 8u)
ARM GAS  C:\Users\tmj32\AppData\Local\Temp\cchH8kkE.s 			page 57


2335:Generated_Source\PSoC5/Driver3.c ****             Driver3_segMBuffer[position] = HI8(charDisplay);
2336:Generated_Source\PSoC5/Driver3.c ****         #endif /* (Driver3_NUM_SEG > 8u) */
2337:Generated_Source\PSoC5/Driver3.c ****     }
2338:Generated_Source\PSoC5/Driver3.c **** }
2339:Generated_Source\PSoC5/Driver3.c **** 
2340:Generated_Source\PSoC5/Driver3.c **** 
2341:Generated_Source\PSoC5/Driver3.c **** /*******************************************************************************
2342:Generated_Source\PSoC5/Driver3.c **** * Function Name: Driver3_PutDecimalPoint
2343:Generated_Source\PSoC5/Driver3.c **** ********************************************************************************
2344:Generated_Source\PSoC5/Driver3.c **** *
2345:Generated_Source\PSoC5/Driver3.c **** * Summary:
2346:Generated_Source\PSoC5/Driver3.c **** *  Sets or clears the decimal point at the specified position.
2347:Generated_Source\PSoC5/Driver3.c **** *
2348:Generated_Source\PSoC5/Driver3.c **** * Parameters:
2349:Generated_Source\PSoC5/Driver3.c **** *  uint8 dp: If the value is > 0 the decimal point will be set, if zero, the 
2350:Generated_Source\PSoC5/Driver3.c **** *            decimal point will be cleared.
2351:Generated_Source\PSoC5/Driver3.c **** *  uint8 position: The position at which to adjust the decimal point.
2352:Generated_Source\PSoC5/Driver3.c **** * Return:
2353:Generated_Source\PSoC5/Driver3.c **** *  None
2354:Generated_Source\PSoC5/Driver3.c **** *
2355:Generated_Source\PSoC5/Driver3.c **** * Side effects:
2356:Generated_Source\PSoC5/Driver3.c **** *  None
2357:Generated_Source\PSoC5/Driver3.c **** *
2358:Generated_Source\PSoC5/Driver3.c **** *******************************************************************************/
2359:Generated_Source\PSoC5/Driver3.c **** void Driver3_PutDecimalPoint(uint8 dp, uint8 position)
2360:Generated_Source\PSoC5/Driver3.c **** 
2361:Generated_Source\PSoC5/Driver3.c **** {
 823              		.loc 1 2361 0
 824              		.cfi_startproc
 825              		@ args = 0, pretend = 0, frame = 0
 826              		@ frame_needed = 0, uses_anonymous_args = 0
 827              		@ link register save eliminated.
 828              	.LVL93:
2362:Generated_Source\PSoC5/Driver3.c ****     uint8 value;
2363:Generated_Source\PSoC5/Driver3.c ****     uint8 relPosition;
2364:Generated_Source\PSoC5/Driver3.c ****     
2365:Generated_Source\PSoC5/Driver3.c ****     value = Driver3_DEC_POINT_VALUE;
2366:Generated_Source\PSoC5/Driver3.c ****     
2367:Generated_Source\PSoC5/Driver3.c ****     if(position < Driver3_NUM_COM)
 829              		.loc 1 2367 0
 830 0000 0329     		cmp	r1, #3
 831 0002 0BD8     		bhi	.L85
 832              	.LVL94:
2368:Generated_Source\PSoC5/Driver3.c ****     {
2369:Generated_Source\PSoC5/Driver3.c ****         relPosition = position;
2370:Generated_Source\PSoC5/Driver3.c ****         if(dp != 0u)
 833              		.loc 1 2370 0
 834 0004 28B1     		cbz	r0, .L87
2371:Generated_Source\PSoC5/Driver3.c ****         {
2372:Generated_Source\PSoC5/Driver3.c ****             #if(Driver3_SEG_DRIVE == Driver3_HIGH)
2373:Generated_Source\PSoC5/Driver3.c ****                 Driver3_segLBuffer[relPosition] |= value;
2374:Generated_Source\PSoC5/Driver3.c ****             #else
2375:Generated_Source\PSoC5/Driver3.c ****                 Driver3_segLBuffer[relPosition] &= value;
 835              		.loc 1 2375 0
 836 0006 064A     		ldr	r2, .L88
 837 0008 535C     		ldrb	r3, [r2, r1]	@ zero_extendqisi2
 838 000a 03F07F03 		and	r3, r3, #127
ARM GAS  C:\Users\tmj32\AppData\Local\Temp\cchH8kkE.s 			page 58


 839 000e 5354     		strb	r3, [r2, r1]
 840 0010 7047     		bx	lr
 841              	.L87:
2376:Generated_Source\PSoC5/Driver3.c ****             #endif /* (Driver3_SEG_DRIVE == Driver3_HIGH) */
2377:Generated_Source\PSoC5/Driver3.c ****         }
2378:Generated_Source\PSoC5/Driver3.c ****         else
2379:Generated_Source\PSoC5/Driver3.c ****         {
2380:Generated_Source\PSoC5/Driver3.c ****             #if(Driver3_SEG_DRIVE == Driver3_HIGH)
2381:Generated_Source\PSoC5/Driver3.c ****                 Driver3_segLBuffer[relPosition] &= ((uint8)(~(uint8)value));
2382:Generated_Source\PSoC5/Driver3.c ****             #else
2383:Generated_Source\PSoC5/Driver3.c ****                 Driver3_segLBuffer[relPosition] |= ((uint8)(~(uint8)value));
 842              		.loc 1 2383 0
 843 0012 034A     		ldr	r2, .L88
 844 0014 535C     		ldrb	r3, [r2, r1]	@ zero_extendqisi2
 845 0016 63F07F03 		orn	r3, r3, #127
 846 001a 5354     		strb	r3, [r2, r1]
 847              	.LVL95:
 848              	.L85:
 849 001c 7047     		bx	lr
 850              	.L89:
 851 001e 00BF     		.align	2
 852              	.L88:
 853 0020 00000000 		.word	Driver3_segLBuffer
 854              		.cfi_endproc
 855              	.LFE32:
 856              		.size	Driver3_PutDecimalPoint, .-Driver3_PutDecimalPoint
 857              		.section	.text.Driver3_GetDecimalPoint,"ax",%progbits
 858              		.align	2
 859              		.global	Driver3_GetDecimalPoint
 860              		.thumb
 861              		.thumb_func
 862              		.type	Driver3_GetDecimalPoint, %function
 863              	Driver3_GetDecimalPoint:
 864              	.LFB33:
2384:Generated_Source\PSoC5/Driver3.c ****             #endif /* (Driver3_SEG_DRIVE == Driver3_HIGH) */
2385:Generated_Source\PSoC5/Driver3.c ****         }
2386:Generated_Source\PSoC5/Driver3.c ****     } 
2387:Generated_Source\PSoC5/Driver3.c ****     else if (position < Driver3_TWO_NUM_COM)
2388:Generated_Source\PSoC5/Driver3.c ****     {
2389:Generated_Source\PSoC5/Driver3.c ****         #if (Driver3_NUM_SEG > 8u)
2390:Generated_Source\PSoC5/Driver3.c ****             relPosition = position - Driver3_NUM_COM;
2391:Generated_Source\PSoC5/Driver3.c ****             if(dp != 0u)
2392:Generated_Source\PSoC5/Driver3.c ****             {
2393:Generated_Source\PSoC5/Driver3.c ****                 #if(Driver3_SEG_DRIVE == Driver3_HIGH)
2394:Generated_Source\PSoC5/Driver3.c ****                     Driver3_segMBuffer[relPosition] |= value;
2395:Generated_Source\PSoC5/Driver3.c ****                 #else
2396:Generated_Source\PSoC5/Driver3.c ****                     Driver3_segMBuffer[relPosition] &= value;
2397:Generated_Source\PSoC5/Driver3.c ****                 #endif /* (Driver3_SEG_DRIVE == Driver3_HIGH) */
2398:Generated_Source\PSoC5/Driver3.c ****             }
2399:Generated_Source\PSoC5/Driver3.c ****             else
2400:Generated_Source\PSoC5/Driver3.c ****             {
2401:Generated_Source\PSoC5/Driver3.c ****                 #if(Driver3_SEG_DRIVE == Driver3_HIGH)
2402:Generated_Source\PSoC5/Driver3.c ****                     Driver3_segMBuffer[relPosition] &= ((uint8)(~(uint8)value));
2403:Generated_Source\PSoC5/Driver3.c ****                 #else
2404:Generated_Source\PSoC5/Driver3.c ****                     Driver3_segMBuffer[relPosition] |= ((uint8)(~(uint8)value));
2405:Generated_Source\PSoC5/Driver3.c ****                 #endif /* (Driver3_SEG_DRIVE == Driver3_HIGH) */
2406:Generated_Source\PSoC5/Driver3.c ****             }
ARM GAS  C:\Users\tmj32\AppData\Local\Temp\cchH8kkE.s 			page 59


2407:Generated_Source\PSoC5/Driver3.c ****         #endif /* (Driver3_NUM_SEG > 8u) */
2408:Generated_Source\PSoC5/Driver3.c ****     } 
2409:Generated_Source\PSoC5/Driver3.c ****     else
2410:Generated_Source\PSoC5/Driver3.c ****     {
2411:Generated_Source\PSoC5/Driver3.c ****         #if (Driver3_NUM_SEG > 16u)
2412:Generated_Source\PSoC5/Driver3.c ****             relPosition = position - Driver3_TWO_NUM_COM;
2413:Generated_Source\PSoC5/Driver3.c ****             if(relPosition < Driver3_NUM_COM)
2414:Generated_Source\PSoC5/Driver3.c ****             {
2415:Generated_Source\PSoC5/Driver3.c ****                 if(dp != 0u)
2416:Generated_Source\PSoC5/Driver3.c ****                 {
2417:Generated_Source\PSoC5/Driver3.c ****                     #if(Driver3_SEG_DRIVE == Driver3_HIGH)
2418:Generated_Source\PSoC5/Driver3.c ****                         Driver3_segHBuffer[relPosition] |= value;
2419:Generated_Source\PSoC5/Driver3.c ****                     #else
2420:Generated_Source\PSoC5/Driver3.c ****                         Driver3_segHBuffer[relPosition] &= value;
2421:Generated_Source\PSoC5/Driver3.c ****                     #endif /* (Driver3_SEG_DRIVE == Driver3_HIGH) */
2422:Generated_Source\PSoC5/Driver3.c ****                 }
2423:Generated_Source\PSoC5/Driver3.c ****                 else
2424:Generated_Source\PSoC5/Driver3.c ****                 {
2425:Generated_Source\PSoC5/Driver3.c ****                     #if(Driver3_SEG_DRIVE == Driver3_HIGH)
2426:Generated_Source\PSoC5/Driver3.c ****                         Driver3_segHBuffer[relPosition] &= ((uint8)(~(uint8)value));
2427:Generated_Source\PSoC5/Driver3.c ****                     #else
2428:Generated_Source\PSoC5/Driver3.c ****                         Driver3_segHBuffer[relPosition] |= ((uint8)(~(uint8)value));
2429:Generated_Source\PSoC5/Driver3.c ****                     #endif /* (Driver3_SEG_DRIVE == Driver3_HIGH) */
2430:Generated_Source\PSoC5/Driver3.c ****                 }
2431:Generated_Source\PSoC5/Driver3.c ****             }
2432:Generated_Source\PSoC5/Driver3.c ****         #endif /* (Driver3_NUM_SEG > 16u) */
2433:Generated_Source\PSoC5/Driver3.c ****     }
2434:Generated_Source\PSoC5/Driver3.c **** }
2435:Generated_Source\PSoC5/Driver3.c **** 
2436:Generated_Source\PSoC5/Driver3.c **** 
2437:Generated_Source\PSoC5/Driver3.c **** /*******************************************************************************
2438:Generated_Source\PSoC5/Driver3.c **** * Function Name: Driver3_GetDecimalPoint
2439:Generated_Source\PSoC5/Driver3.c **** ********************************************************************************
2440:Generated_Source\PSoC5/Driver3.c **** *
2441:Generated_Source\PSoC5/Driver3.c **** * Summary:
2442:Generated_Source\PSoC5/Driver3.c **** *  Returns zero if the decimal point is not set and one if the decimal point 
2443:Generated_Source\PSoC5/Driver3.c **** *  is set.
2444:Generated_Source\PSoC5/Driver3.c **** *
2445:Generated_Source\PSoC5/Driver3.c **** * Parameters:
2446:Generated_Source\PSoC5/Driver3.c **** *  uint8 position: The position in which to query the decimal point value.
2447:Generated_Source\PSoC5/Driver3.c **** *
2448:Generated_Source\PSoC5/Driver3.c **** * Return:
2449:Generated_Source\PSoC5/Driver3.c **** *  Returns the current state of the decimal point (segment #7 on a 7-seg 
2450:Generated_Source\PSoC5/Driver3.c **** *  display). '1' indicates the decimal point is on. '0' indicates the decimal 
2451:Generated_Source\PSoC5/Driver3.c **** *  point is off.
2452:Generated_Source\PSoC5/Driver3.c **** *
2453:Generated_Source\PSoC5/Driver3.c **** * Side effects:
2454:Generated_Source\PSoC5/Driver3.c **** *  None
2455:Generated_Source\PSoC5/Driver3.c **** *
2456:Generated_Source\PSoC5/Driver3.c **** *******************************************************************************/
2457:Generated_Source\PSoC5/Driver3.c **** uint8 Driver3_GetDecimalPoint(uint8 position) 
2458:Generated_Source\PSoC5/Driver3.c **** {
 865              		.loc 1 2458 0
 866              		.cfi_startproc
 867              		@ args = 0, pretend = 0, frame = 0
 868              		@ frame_needed = 0, uses_anonymous_args = 0
 869              		@ link register save eliminated.
ARM GAS  C:\Users\tmj32\AppData\Local\Temp\cchH8kkE.s 			page 60


 870              	.LVL96:
2459:Generated_Source\PSoC5/Driver3.c ****     uint8 value;
2460:Generated_Source\PSoC5/Driver3.c ****     uint8 relPosition;
2461:Generated_Source\PSoC5/Driver3.c ****     uint8 decPointVal = 0u;
2462:Generated_Source\PSoC5/Driver3.c ****     
2463:Generated_Source\PSoC5/Driver3.c ****     if(position < Driver3_NUM_COM)
 871              		.loc 1 2463 0
 872 0000 0328     		cmp	r0, #3
 873 0002 03D8     		bhi	.L92
 874              	.LVL97:
2464:Generated_Source\PSoC5/Driver3.c ****     {
2465:Generated_Source\PSoC5/Driver3.c ****         relPosition = position;
2466:Generated_Source\PSoC5/Driver3.c ****         decPointVal = (uint8)((uint8)(Driver3_segLBuffer[relPosition]) >> Driver3_DEC_POINT);
 875              		.loc 1 2466 0
 876 0004 034B     		ldr	r3, .L93
 877 0006 185C     		ldrb	r0, [r3, r0]	@ zero_extendqisi2
 878              	.LVL98:
 879 0008 C009     		lsrs	r0, r0, #7
 880              	.LVL99:
 881 000a 00E0     		b	.L91
 882              	.LVL100:
 883              	.L92:
2461:Generated_Source\PSoC5/Driver3.c ****     
 884              		.loc 1 2461 0
 885 000c 0020     		movs	r0, #0
 886              	.LVL101:
 887              	.L91:
2467:Generated_Source\PSoC5/Driver3.c ****     } 
2468:Generated_Source\PSoC5/Driver3.c ****     else if (position < Driver3_TWO_NUM_COM)
2469:Generated_Source\PSoC5/Driver3.c ****     {
2470:Generated_Source\PSoC5/Driver3.c ****         #if (Driver3_NUM_SEG > 8u) 
2471:Generated_Source\PSoC5/Driver3.c ****             relPosition = position - Driver3_NUM_COM;
2472:Generated_Source\PSoC5/Driver3.c ****             decPointVal = (uint8)((uint8)(Driver3_segMBuffer[relPosition]) >> Driver3_DEC_POINT);
2473:Generated_Source\PSoC5/Driver3.c ****         #endif /* (Driver3_NUM_SEG > 8u) */
2474:Generated_Source\PSoC5/Driver3.c ****     }
2475:Generated_Source\PSoC5/Driver3.c ****     else
2476:Generated_Source\PSoC5/Driver3.c ****     {
2477:Generated_Source\PSoC5/Driver3.c ****         #if (Driver3_NUM_SEG > 16u)
2478:Generated_Source\PSoC5/Driver3.c ****             relPosition = position - Driver3_TWO_NUM_COM;
2479:Generated_Source\PSoC5/Driver3.c ****             if(relPosition < Driver3_NUM_COM)
2480:Generated_Source\PSoC5/Driver3.c ****             {
2481:Generated_Source\PSoC5/Driver3.c ****                 decPointVal = (uint8)((uint8)(Driver3_segHBuffer[relPosition]) >> Driver3_DEC_POINT
2482:Generated_Source\PSoC5/Driver3.c ****             }
2483:Generated_Source\PSoC5/Driver3.c ****         #endif /* (Driver3_NUM_SEG > 16u) */
2484:Generated_Source\PSoC5/Driver3.c ****     }
2485:Generated_Source\PSoC5/Driver3.c ****     
2486:Generated_Source\PSoC5/Driver3.c ****     #if(Driver3_SEG_DRIVE == Driver3_HIGH)
2487:Generated_Source\PSoC5/Driver3.c ****         value = (uint8)(decPointVal & Driver3_DEC_POINT_MASK);
2488:Generated_Source\PSoC5/Driver3.c ****     #else
2489:Generated_Source\PSoC5/Driver3.c ****         value = (uint8)((uint8)((uint8)~decPointVal) & Driver3_DEC_POINT_MASK);
2490:Generated_Source\PSoC5/Driver3.c ****     #endif /* (Driver3_SEG_DRIVE == Driver3_HIGH) */
2491:Generated_Source\PSoC5/Driver3.c ****     
2492:Generated_Source\PSoC5/Driver3.c ****     return(value);
2493:Generated_Source\PSoC5/Driver3.c **** }
 888              		.loc 1 2493 0
 889 000e 80F00100 		eor	r0, r0, #1
 890              	.LVL102:
ARM GAS  C:\Users\tmj32\AppData\Local\Temp\cchH8kkE.s 			page 61


 891 0012 7047     		bx	lr
 892              	.L94:
 893              		.align	2
 894              	.L93:
 895 0014 00000000 		.word	Driver3_segLBuffer
 896              		.cfi_endproc
 897              	.LFE33:
 898              		.size	Driver3_GetDecimalPoint, .-Driver3_GetDecimalPoint
 899              		.section	.text.Driver3_EncodeNumber7Seg,"ax",%progbits
 900              		.align	2
 901              		.global	Driver3_EncodeNumber7Seg
 902              		.thumb
 903              		.thumb_func
 904              		.type	Driver3_EncodeNumber7Seg, %function
 905              	Driver3_EncodeNumber7Seg:
 906              	.LFB34:
2494:Generated_Source\PSoC5/Driver3.c **** 
2495:Generated_Source\PSoC5/Driver3.c **** 
2496:Generated_Source\PSoC5/Driver3.c **** /*******************************************************************************
2497:Generated_Source\PSoC5/Driver3.c **** * Function Name: Driver3_EncodeNumber7Seg
2498:Generated_Source\PSoC5/Driver3.c **** ********************************************************************************
2499:Generated_Source\PSoC5/Driver3.c **** *
2500:Generated_Source\PSoC5/Driver3.c **** * Summary:
2501:Generated_Source\PSoC5/Driver3.c **** *  Converts the lower 4 bits of the input into 7-segment data that will display 
2502:Generated_Source\PSoC5/Driver3.c **** *  the number in hex on a display. The returned data can be written directly 
2503:Generated_Source\PSoC5/Driver3.c **** *  into the display RAM to display the desired number. It is not necessary to 
2504:Generated_Source\PSoC5/Driver3.c **** *  use this function since higher level API are provided to both decode the 
2505:Generated_Source\PSoC5/Driver3.c **** *  value and write it to the display RAM.
2506:Generated_Source\PSoC5/Driver3.c **** *
2507:Generated_Source\PSoC5/Driver3.c **** * Parameters:
2508:Generated_Source\PSoC5/Driver3.c **** *  uint8 number: A number between 0x0 and 0xF to be converted into segment data.
2509:Generated_Source\PSoC5/Driver3.c **** *
2510:Generated_Source\PSoC5/Driver3.c **** * Return:
2511:Generated_Source\PSoC5/Driver3.c **** *  The value to be written into the display RAM for displaying the specific
2512:Generated_Source\PSoC5/Driver3.c **** *  number.
2513:Generated_Source\PSoC5/Driver3.c **** *
2514:Generated_Source\PSoC5/Driver3.c **** * Side effects:
2515:Generated_Source\PSoC5/Driver3.c **** *  None
2516:Generated_Source\PSoC5/Driver3.c **** *
2517:Generated_Source\PSoC5/Driver3.c **** *******************************************************************************/
2518:Generated_Source\PSoC5/Driver3.c **** uint8 Driver3_EncodeNumber7Seg(uint8 number) 
2519:Generated_Source\PSoC5/Driver3.c **** {
 907              		.loc 1 2519 0
 908              		.cfi_startproc
 909              		@ args = 0, pretend = 0, frame = 0
 910              		@ frame_needed = 0, uses_anonymous_args = 0
 911              		@ link register save eliminated.
 912              	.LVL103:
2520:Generated_Source\PSoC5/Driver3.c ****     /* 7-segment numerical LUT */
2521:Generated_Source\PSoC5/Driver3.c ****     #if(Driver3_SEG_DRIVE == Driver3_HIGH)
2522:Generated_Source\PSoC5/Driver3.c ****         static const uint8 CYCODE Driver3_7SegDigits[16] =
2523:Generated_Source\PSoC5/Driver3.c ****               /*--------------------------------------------------------*/
2524:Generated_Source\PSoC5/Driver3.c ****               /*  '0'    '1'    '2'    '3'    '4'    '5'    '6'    '7'  */
2525:Generated_Source\PSoC5/Driver3.c ****               /*--------------------------------------------------------*/
2526:Generated_Source\PSoC5/Driver3.c ****                 {0x3fu, 0x06u, 0x5bu, 0x4fu, 0x66u, 0x6du, 0x7du, 0x07u,
2527:Generated_Source\PSoC5/Driver3.c ****               /*--------------------------------------------------------*/
2528:Generated_Source\PSoC5/Driver3.c ****               /*  '8'    '9'    'A'    'B'    'C'    'D'    'E'    'F'  */
ARM GAS  C:\Users\tmj32\AppData\Local\Temp\cchH8kkE.s 			page 62


2529:Generated_Source\PSoC5/Driver3.c ****               /*--------------------------------------------------------*/
2530:Generated_Source\PSoC5/Driver3.c ****                  0x7fu, 0x6fu, 0x77u, 0x7cu, 0x39u, 0x5eu, 0x79u, 0x71u};
2531:Generated_Source\PSoC5/Driver3.c ****     #else
2532:Generated_Source\PSoC5/Driver3.c ****         static const uint8 CYCODE Driver3_7SegDigits[16] =
2533:Generated_Source\PSoC5/Driver3.c ****               /*--------------------------------------------------------*/
2534:Generated_Source\PSoC5/Driver3.c ****               /*  '0'    '1'    '2'    '3'    '4'    '5'    '6'    '7'  */
2535:Generated_Source\PSoC5/Driver3.c ****               /*--------------------------------------------------------*/
2536:Generated_Source\PSoC5/Driver3.c ****                 {0xc0u, 0xf9u, 0xa4u, 0xb0u, 0x99u, 0x92u, 0x82u, 0xf8u,
2537:Generated_Source\PSoC5/Driver3.c ****               /*--------------------------------------------------------*/
2538:Generated_Source\PSoC5/Driver3.c ****               /*  '8'    '9'    'A'    'B'    'C'    'D'    'E'    'F'  */
2539:Generated_Source\PSoC5/Driver3.c ****               /*--------------------------------------------------------*/
2540:Generated_Source\PSoC5/Driver3.c ****                  0x80u, 0x90u, 0x88u, 0x83u, 0xc6u, 0xa1u, 0x86u, 0x8eu};
2541:Generated_Source\PSoC5/Driver3.c ****     #endif /*  Driver3_SEG_DRIVE */
2542:Generated_Source\PSoC5/Driver3.c **** 
2543:Generated_Source\PSoC5/Driver3.c ****     uint8 valNum;
2544:Generated_Source\PSoC5/Driver3.c ****     uint8 valHex;
2545:Generated_Source\PSoC5/Driver3.c ****     
2546:Generated_Source\PSoC5/Driver3.c ****     valNum = (uint8)(number & Driver3_NIBBLE_MASK);
 913              		.loc 1 2546 0
 914 0000 00F00F00 		and	r0, r0, #15
 915              	.LVL104:
2547:Generated_Source\PSoC5/Driver3.c ****     
2548:Generated_Source\PSoC5/Driver3.c ****     valHex = Driver3_7SegDigits[valNum];
2549:Generated_Source\PSoC5/Driver3.c ****     
2550:Generated_Source\PSoC5/Driver3.c ****     return(valHex);
2551:Generated_Source\PSoC5/Driver3.c **** }
 916              		.loc 1 2551 0
 917 0004 014B     		ldr	r3, .L96
 918 0006 185C     		ldrb	r0, [r3, r0]	@ zero_extendqisi2
 919              	.LVL105:
 920 0008 7047     		bx	lr
 921              	.L97:
 922 000a 00BF     		.align	2
 923              	.L96:
 924 000c 00000000 		.word	.LANCHOR2
 925              		.cfi_endproc
 926              	.LFE34:
 927              		.size	Driver3_EncodeNumber7Seg, .-Driver3_EncodeNumber7Seg
 928              		.section	.text.Driver3_Write7SegNumberHex,"ax",%progbits
 929              		.align	2
 930              		.global	Driver3_Write7SegNumberHex
 931              		.thumb
 932              		.thumb_func
 933              		.type	Driver3_Write7SegNumberHex, %function
 934              	Driver3_Write7SegNumberHex:
 935              	.LFB15:
1122:Generated_Source\PSoC5/Driver3.c ****     uint8 i;
 936              		.loc 1 1122 0
 937              		.cfi_startproc
 938              		@ args = 0, pretend = 0, frame = 8
 939              		@ frame_needed = 0, uses_anonymous_args = 0
 940              	.LVL106:
 941 0000 2DE9F043 		push	{r4, r5, r6, r7, r8, r9, lr}
 942              		.cfi_def_cfa_offset 28
 943              		.cfi_offset 4, -28
 944              		.cfi_offset 5, -24
 945              		.cfi_offset 6, -20
ARM GAS  C:\Users\tmj32\AppData\Local\Temp\cchH8kkE.s 			page 63


 946              		.cfi_offset 7, -16
 947              		.cfi_offset 8, -12
 948              		.cfi_offset 9, -8
 949              		.cfi_offset 14, -4
 950 0004 83B0     		sub	sp, sp, #12
 951              		.cfi_def_cfa_offset 40
 952 0006 8146     		mov	r9, r0
 953 0008 0E46     		mov	r6, r1
 954 000a 1446     		mov	r4, r2
 955 000c 9846     		mov	r8, r3
 956              	.LVL107:
1128:Generated_Source\PSoC5/Driver3.c ****     uint32 numberVal;
 957              		.loc 1 1128 0
 958 000e 0023     		movs	r3, #0
 959              	.LVL108:
 960 0010 0093     		str	r3, [sp]
 961 0012 0193     		str	r3, [sp, #4]
 962              	.LVL109:
1134:Generated_Source\PSoC5/Driver3.c ****     {
 963              		.loc 1 1134 0
 964 0014 0329     		cmp	r1, #3
 965 0016 0AD9     		bls	.L124
1139:Generated_Source\PSoC5/Driver3.c ****     {
 966              		.loc 1 1139 0
 967 0018 0729     		cmp	r1, #7
 968 001a 03D8     		bhi	.L100
 969              	.LVL110:
1142:Generated_Source\PSoC5/Driver3.c ****     }
 970              		.loc 1 1142 0
 971 001c 0E1F     		subs	r6, r1, #4
 972 001e F6B2     		uxtb	r6, r6
 973              	.LVL111:
1141:Generated_Source\PSoC5/Driver3.c ****         relPosition = position - Driver3_NUM_COM;
 974              		.loc 1 1141 0
 975 0020 0127     		movs	r7, #1
 976 0022 05E0     		b	.L99
 977              	.LVL112:
 978              	.L100:
1147:Generated_Source\PSoC5/Driver3.c ****     }
 979              		.loc 1 1147 0
 980 0024 A1F10806 		sub	r6, r1, #8
 981 0028 F6B2     		uxtb	r6, r6
 982              	.LVL113:
1146:Generated_Source\PSoC5/Driver3.c ****         relPosition = position - Driver3_TWO_NUM_COM;
 983              		.loc 1 1146 0
 984 002a 0227     		movs	r7, #2
 985 002c 00E0     		b	.L99
 986              	.LVL114:
 987              	.L124:
1136:Generated_Source\PSoC5/Driver3.c ****         relPosition = position;
 988              		.loc 1 1136 0
 989 002e 0027     		movs	r7, #0
 990              	.L99:
 991              	.LVL115:
1151:Generated_Source\PSoC5/Driver3.c ****     {
 992              		.loc 1 1151 0
 993 0030 2346     		mov	r3, r4
ARM GAS  C:\Users\tmj32\AppData\Local\Temp\cchH8kkE.s 			page 64


 994 0032 0BE0     		b	.L101
 995              	.LVL116:
 996              	.L102:
1154:Generated_Source\PSoC5/Driver3.c ****         numberVal = (uint32)((uint32)numberVal >> Driver3_SHIFT_NIBBLE);
 997              		.loc 1 1154 0 discriminator 3
 998 0034 5D1E     		subs	r5, r3, #1
 999 0036 09F00F00 		and	r0, r9, #15
 1000 003a FFF7FEFF 		bl	Driver3_EncodeNumber7Seg
 1001              	.LVL117:
 1002 003e 02AB     		add	r3, sp, #8
 1003 0040 2B44     		add	r3, r3, r5
 1004 0042 03F8080C 		strb	r0, [r3, #-8]
1155:Generated_Source\PSoC5/Driver3.c ****     }
 1005              		.loc 1 1155 0 discriminator 3
 1006 0046 4FEA1919 		lsr	r9, r9, #4
 1007              	.LVL118:
1151:Generated_Source\PSoC5/Driver3.c ****     {
 1008              		.loc 1 1151 0 discriminator 3
 1009 004a EBB2     		uxtb	r3, r5
 1010              	.LVL119:
 1011              	.L101:
1151:Generated_Source\PSoC5/Driver3.c ****     {
 1012              		.loc 1 1151 0 is_stmt 0 discriminator 1
 1013 004c 002B     		cmp	r3, #0
 1014 004e F1D1     		bne	.L102
1159:Generated_Source\PSoC5/Driver3.c ****     {
 1015              		.loc 1 1159 0 is_stmt 1
 1016 0050 B8F1020F 		cmp	r8, #2
 1017 0054 14D1     		bne	.L125
 1018 0056 17E0     		b	.L104
 1019              	.LVL120:
 1020              	.L106:
1163:Generated_Source\PSoC5/Driver3.c ****             {
 1021              		.loc 1 1163 0
 1022 0058 1946     		mov	r1, r3
 1023 005a 02A8     		add	r0, sp, #8
 1024 005c 1844     		add	r0, r0, r3
 1025 005e 10F8080C 		ldrb	r0, [r0, #-8]	@ zero_extendqisi2
 1026 0062 C028     		cmp	r0, #192
 1027 0064 10D1     		bne	.L104
1170:Generated_Source\PSoC5/Driver3.c ****                 {
 1028              		.loc 1 1170 0
 1029 0066 601E     		subs	r0, r4, #1
 1030 0068 8242     		cmp	r2, r0
 1031 006a 06D0     		beq	.L105
1173:Generated_Source\PSoC5/Driver3.c ****                     zeroCount++;
 1032              		.loc 1 1173 0
 1033 006c 02A8     		add	r0, sp, #8
 1034 006e 0144     		add	r1, r1, r0
 1035 0070 FF20     		movs	r0, #255
 1036 0072 01F8080C 		strb	r0, [r1, #-8]
1174:Generated_Source\PSoC5/Driver3.c ****                 }
 1037              		.loc 1 1174 0
 1038 0076 0132     		adds	r2, r2, #1
 1039              	.LVL121:
 1040 0078 D2B2     		uxtb	r2, r2
 1041              	.LVL122:
ARM GAS  C:\Users\tmj32\AppData\Local\Temp\cchH8kkE.s 			page 65


 1042              	.L105:
1161:Generated_Source\PSoC5/Driver3.c ****         {
 1043              		.loc 1 1161 0 discriminator 2
 1044 007a 0133     		adds	r3, r3, #1
 1045              	.LVL123:
 1046 007c DBB2     		uxtb	r3, r3
 1047              	.LVL124:
 1048 007e 01E0     		b	.L103
 1049              	.LVL125:
 1050              	.L125:
 1051 0080 0022     		movs	r2, #0
 1052 0082 1346     		mov	r3, r2
 1053              	.LVL126:
 1054              	.L103:
1161:Generated_Source\PSoC5/Driver3.c ****         {
 1055              		.loc 1 1161 0 is_stmt 0 discriminator 1
 1056 0084 A342     		cmp	r3, r4
 1057 0086 E7D3     		bcc	.L106
 1058              	.LVL127:
 1059              	.L104:
1181:Generated_Source\PSoC5/Driver3.c ****     {
 1060              		.loc 1 1181 0 is_stmt 1
 1061 0088 B8F1010F 		cmp	r8, #1
 1062 008c 43D1     		bne	.L108
 1063 008e 15E0     		b	.L126
 1064              	.L113:
1185:Generated_Source\PSoC5/Driver3.c ****             {
 1065              		.loc 1 1185 0
 1066 0090 02AA     		add	r2, sp, #8
 1067 0092 1A44     		add	r2, r2, r3
 1068 0094 12F8082C 		ldrb	r2, [r2, #-8]	@ zero_extendqisi2
 1069 0098 FF2A     		cmp	r2, #255
 1070 009a 0CD0     		beq	.L109
1187:Generated_Source\PSoC5/Driver3.c ****                 {
 1071              		.loc 1 1187 0
 1072 009c 032E     		cmp	r6, #3
 1073 009e 08D8     		bhi	.L110
1190:Generated_Source\PSoC5/Driver3.c ****                     {
 1074              		.loc 1 1190 0
 1075 00a0 17B1     		cbz	r7, .L112
 1076 00a2 022F     		cmp	r7, #2
 1077 00a4 03D8     		bhi	.L111
 1078 00a6 04E0     		b	.L110
 1079              	.L112:
1193:Generated_Source\PSoC5/Driver3.c ****                             break;
 1080              		.loc 1 1193 0
 1081 00a8 1D49     		ldr	r1, .L128
 1082 00aa 8A55     		strb	r2, [r1, r6]
1194:Generated_Source\PSoC5/Driver3.c ****                         case Driver3_SEG_REG_MID :
 1083              		.loc 1 1194 0
 1084 00ac 01E0     		b	.L110
 1085              	.L111:
1206:Generated_Source\PSoC5/Driver3.c ****                             break;
 1086              		.loc 1 1206 0
 1087 00ae 1C49     		ldr	r1, .L128
 1088 00b0 8A55     		strb	r2, [r1, r6]
 1089              	.L110:
ARM GAS  C:\Users\tmj32\AppData\Local\Temp\cchH8kkE.s 			page 66


1210:Generated_Source\PSoC5/Driver3.c ****             }
 1090              		.loc 1 1210 0
 1091 00b2 0136     		adds	r6, r6, #1
 1092              	.LVL128:
 1093 00b4 F6B2     		uxtb	r6, r6
 1094              	.LVL129:
 1095              	.L109:
1183:Generated_Source\PSoC5/Driver3.c ****         {
 1096              		.loc 1 1183 0 discriminator 2
 1097 00b6 0133     		adds	r3, r3, #1
 1098              	.LVL130:
 1099 00b8 DBB2     		uxtb	r3, r3
 1100              	.LVL131:
 1101 00ba 00E0     		b	.L107
 1102              	.L126:
 1103 00bc 0023     		movs	r3, #0
 1104              	.LVL132:
 1105              	.L107:
1183:Generated_Source\PSoC5/Driver3.c ****         {
 1106              		.loc 1 1183 0 is_stmt 0 discriminator 1
 1107 00be A342     		cmp	r3, r4
 1108 00c0 E6D3     		bcc	.L113
 1109 00c2 0CE0     		b	.L114
 1110              	.LVL133:
 1111              	.L118:
1216:Generated_Source\PSoC5/Driver3.c ****             {
 1112              		.loc 1 1216 0 is_stmt 1
 1113 00c4 17B1     		cbz	r7, .L116
 1114 00c6 022F     		cmp	r7, #2
 1115 00c8 04D8     		bhi	.L115
 1116 00ca 06E0     		b	.L117
 1117              	.L116:
1219:Generated_Source\PSoC5/Driver3.c ****                     break;
 1118              		.loc 1 1219 0
 1119 00cc FF22     		movs	r2, #255
 1120 00ce 144B     		ldr	r3, .L128
 1121 00d0 9A55     		strb	r2, [r3, r6]
1220:Generated_Source\PSoC5/Driver3.c ****                 case Driver3_SEG_REG_MID :
 1122              		.loc 1 1220 0
 1123 00d2 02E0     		b	.L117
 1124              	.L115:
1232:Generated_Source\PSoC5/Driver3.c ****                     break;
 1125              		.loc 1 1232 0
 1126 00d4 FF22     		movs	r2, #255
 1127 00d6 124B     		ldr	r3, .L128
 1128 00d8 9A55     		strb	r2, [r3, r6]
 1129              	.L117:
1235:Generated_Source\PSoC5/Driver3.c ****         }
 1130              		.loc 1 1235 0
 1131 00da 0136     		adds	r6, r6, #1
 1132              	.LVL134:
 1133 00dc F6B2     		uxtb	r6, r6
 1134              	.LVL135:
 1135              	.L114:
1214:Generated_Source\PSoC5/Driver3.c ****         {
 1136              		.loc 1 1214 0
 1137 00de A642     		cmp	r6, r4
ARM GAS  C:\Users\tmj32\AppData\Local\Temp\cchH8kkE.s 			page 67


 1138 00e0 F0D3     		bcc	.L118
 1139 00e2 1AE0     		b	.L98
 1140              	.LVL136:
 1141              	.L123:
1243:Generated_Source\PSoC5/Driver3.c ****             {
 1142              		.loc 1 1243 0
 1143 00e4 A319     		adds	r3, r4, r6
 1144 00e6 013B     		subs	r3, r3, #1
 1145 00e8 032B     		cmp	r3, #3
 1146 00ea 12D8     		bhi	.L120
1246:Generated_Source\PSoC5/Driver3.c ****                 {
 1147              		.loc 1 1246 0
 1148 00ec 17B1     		cbz	r7, .L122
 1149 00ee 022F     		cmp	r7, #2
 1150 00f0 08D8     		bhi	.L121
 1151 00f2 0EE0     		b	.L120
 1152              	.L122:
1249:Generated_Source\PSoC5/Driver3.c ****                         break;
 1153              		.loc 1 1249 0
 1154 00f4 621E     		subs	r2, r4, #1
 1155 00f6 02A9     		add	r1, sp, #8
 1156 00f8 0A44     		add	r2, r2, r1
 1157 00fa 12F8081C 		ldrb	r1, [r2, #-8]	@ zero_extendqisi2
 1158 00fe 084A     		ldr	r2, .L128
 1159 0100 D154     		strb	r1, [r2, r3]
1250:Generated_Source\PSoC5/Driver3.c ****                     case Driver3_SEG_REG_MID :
 1160              		.loc 1 1250 0
 1161 0102 06E0     		b	.L120
 1162              	.L121:
1262:Generated_Source\PSoC5/Driver3.c ****                         break;
 1163              		.loc 1 1262 0
 1164 0104 621E     		subs	r2, r4, #1
 1165 0106 02A9     		add	r1, sp, #8
 1166 0108 0A44     		add	r2, r2, r1
 1167 010a 12F8081C 		ldrb	r1, [r2, #-8]	@ zero_extendqisi2
 1168 010e 044A     		ldr	r2, .L128
 1169 0110 D154     		strb	r1, [r2, r3]
 1170              	.L120:
1241:Generated_Source\PSoC5/Driver3.c ****         {
 1171              		.loc 1 1241 0 discriminator 2
 1172 0112 013C     		subs	r4, r4, #1
 1173              	.LVL137:
 1174 0114 E4B2     		uxtb	r4, r4
 1175              	.LVL138:
 1176              	.L108:
1241:Generated_Source\PSoC5/Driver3.c ****         {
 1177              		.loc 1 1241 0 is_stmt 0 discriminator 1
 1178 0116 002C     		cmp	r4, #0
 1179 0118 E4D1     		bne	.L123
 1180              	.LVL139:
 1181              	.L98:
1268:Generated_Source\PSoC5/Driver3.c **** 
 1182              		.loc 1 1268 0 is_stmt 1
 1183 011a 03B0     		add	sp, sp, #12
 1184              		.cfi_def_cfa_offset 28
 1185              		@ sp needed
 1186 011c BDE8F083 		pop	{r4, r5, r6, r7, r8, r9, pc}
ARM GAS  C:\Users\tmj32\AppData\Local\Temp\cchH8kkE.s 			page 68


 1187              	.LVL140:
 1188              	.L129:
