ARM GAS  C:\Users\tmj32\AppData\Local\Temp\ccUJSuOK.s 			page 1


   1              		.syntax unified
   2              		.cpu cortex-m3
   3              		.fpu softvfp
   4              		.eabi_attribute 20, 1
   5              		.eabi_attribute 21, 1
   6              		.eabi_attribute 23, 3
   7              		.eabi_attribute 24, 1
   8              		.eabi_attribute 25, 1
   9              		.eabi_attribute 26, 1
  10              		.eabi_attribute 30, 1
  11              		.eabi_attribute 34, 1
  12              		.eabi_attribute 18, 4
  13              		.thumb
  14              		.syntax unified
  15              		.file	"isr_2.c"
  16              		.text
  17              	.Ltext0:
  18              		.cfi_sections	.debug_frame
  19              		.section	.text.isr_2_SetVector,"ax",%progbits
  20              		.align	2
  21              		.global	isr_2_SetVector
  22              		.thumb
  23              		.thumb_func
  24              		.type	isr_2_SetVector, %function
  25              	isr_2_SetVector:
  26              	.LFB68:
  27              		.file 1 "Generated_Source\\PSoC5\\isr_2.c"
   1:Generated_Source\PSoC5/isr_2.c **** /*******************************************************************************
   2:Generated_Source\PSoC5/isr_2.c **** * File Name: isr_2.c  
   3:Generated_Source\PSoC5/isr_2.c **** * Version 1.70
   4:Generated_Source\PSoC5/isr_2.c **** *
   5:Generated_Source\PSoC5/isr_2.c **** *  Description:
   6:Generated_Source\PSoC5/isr_2.c **** *   API for controlling the state of an interrupt.
   7:Generated_Source\PSoC5/isr_2.c **** *
   8:Generated_Source\PSoC5/isr_2.c **** *
   9:Generated_Source\PSoC5/isr_2.c **** *  Note:
  10:Generated_Source\PSoC5/isr_2.c **** *
  11:Generated_Source\PSoC5/isr_2.c **** ********************************************************************************
  12:Generated_Source\PSoC5/isr_2.c **** * Copyright 2008-2015, Cypress Semiconductor Corporation.  All rights reserved.
  13:Generated_Source\PSoC5/isr_2.c **** * You may use this file only in accordance with the license, terms, conditions, 
  14:Generated_Source\PSoC5/isr_2.c **** * disclaimers, and limitations in the end user license agreement accompanying 
  15:Generated_Source\PSoC5/isr_2.c **** * the software package with which this file was provided.
  16:Generated_Source\PSoC5/isr_2.c **** *******************************************************************************/
  17:Generated_Source\PSoC5/isr_2.c **** 
  18:Generated_Source\PSoC5/isr_2.c **** 
  19:Generated_Source\PSoC5/isr_2.c **** #include <cydevice_trm.h>
  20:Generated_Source\PSoC5/isr_2.c **** #include <CyLib.h>
  21:Generated_Source\PSoC5/isr_2.c **** #include <isr_2.h>
  22:Generated_Source\PSoC5/isr_2.c **** #include "cyapicallbacks.h"
  23:Generated_Source\PSoC5/isr_2.c **** 
  24:Generated_Source\PSoC5/isr_2.c **** #if !defined(isr_2__REMOVED) /* Check for removal by optimization */
  25:Generated_Source\PSoC5/isr_2.c **** 
  26:Generated_Source\PSoC5/isr_2.c **** /*******************************************************************************
  27:Generated_Source\PSoC5/isr_2.c **** *  Place your includes, defines and code here 
  28:Generated_Source\PSoC5/isr_2.c **** ********************************************************************************/
  29:Generated_Source\PSoC5/isr_2.c **** /* `#START isr_2_intc` */
  30:Generated_Source\PSoC5/isr_2.c **** #include "project.h"
ARM GAS  C:\Users\tmj32\AppData\Local\Temp\ccUJSuOK.s 			page 2


  31:Generated_Source\PSoC5/isr_2.c **** #include "stdio.h"
  32:Generated_Source\PSoC5/isr_2.c **** /* `#END` */
  33:Generated_Source\PSoC5/isr_2.c **** 
  34:Generated_Source\PSoC5/isr_2.c **** #ifndef CYINT_IRQ_BASE
  35:Generated_Source\PSoC5/isr_2.c **** #define CYINT_IRQ_BASE      16
  36:Generated_Source\PSoC5/isr_2.c **** #endif /* CYINT_IRQ_BASE */
  37:Generated_Source\PSoC5/isr_2.c **** #ifndef CYINT_VECT_TABLE
  38:Generated_Source\PSoC5/isr_2.c **** #define CYINT_VECT_TABLE    ((cyisraddress **) CYREG_NVIC_VECT_OFFSET)
  39:Generated_Source\PSoC5/isr_2.c **** #endif /* CYINT_VECT_TABLE */
  40:Generated_Source\PSoC5/isr_2.c **** 
  41:Generated_Source\PSoC5/isr_2.c **** /* Declared in startup, used to set unused interrupts to. */
  42:Generated_Source\PSoC5/isr_2.c **** CY_ISR_PROTO(IntDefaultHandler);
  43:Generated_Source\PSoC5/isr_2.c **** 
  44:Generated_Source\PSoC5/isr_2.c **** 
  45:Generated_Source\PSoC5/isr_2.c **** /*******************************************************************************
  46:Generated_Source\PSoC5/isr_2.c **** * Function Name: isr_2_Start
  47:Generated_Source\PSoC5/isr_2.c **** ********************************************************************************
  48:Generated_Source\PSoC5/isr_2.c **** *
  49:Generated_Source\PSoC5/isr_2.c **** * Summary:
  50:Generated_Source\PSoC5/isr_2.c **** *  Set up the interrupt and enable it. This function disables the interrupt, 
  51:Generated_Source\PSoC5/isr_2.c **** *  sets the default interrupt vector, sets the priority from the value in the
  52:Generated_Source\PSoC5/isr_2.c **** *  Design Wide Resources Interrupt Editor, then enables the interrupt to the 
  53:Generated_Source\PSoC5/isr_2.c **** *  interrupt controller.
  54:Generated_Source\PSoC5/isr_2.c **** *
  55:Generated_Source\PSoC5/isr_2.c **** * Parameters:  
  56:Generated_Source\PSoC5/isr_2.c **** *   None
  57:Generated_Source\PSoC5/isr_2.c **** *
  58:Generated_Source\PSoC5/isr_2.c **** * Return:
  59:Generated_Source\PSoC5/isr_2.c **** *   None
  60:Generated_Source\PSoC5/isr_2.c **** *
  61:Generated_Source\PSoC5/isr_2.c **** *******************************************************************************/
  62:Generated_Source\PSoC5/isr_2.c **** void isr_2_Start(void)
  63:Generated_Source\PSoC5/isr_2.c **** {
  64:Generated_Source\PSoC5/isr_2.c ****     /* For all we know the interrupt is active. */
  65:Generated_Source\PSoC5/isr_2.c ****     isr_2_Disable();
  66:Generated_Source\PSoC5/isr_2.c **** 
  67:Generated_Source\PSoC5/isr_2.c ****     /* Set the ISR to point to the isr_2 Interrupt. */
  68:Generated_Source\PSoC5/isr_2.c ****     isr_2_SetVector(&isr_2_Interrupt);
  69:Generated_Source\PSoC5/isr_2.c **** 
  70:Generated_Source\PSoC5/isr_2.c ****     /* Set the priority. */
  71:Generated_Source\PSoC5/isr_2.c ****     isr_2_SetPriority((uint8)isr_2_INTC_PRIOR_NUMBER);
  72:Generated_Source\PSoC5/isr_2.c **** 
  73:Generated_Source\PSoC5/isr_2.c ****     /* Enable it. */
  74:Generated_Source\PSoC5/isr_2.c ****     isr_2_Enable();
  75:Generated_Source\PSoC5/isr_2.c **** }
  76:Generated_Source\PSoC5/isr_2.c **** 
  77:Generated_Source\PSoC5/isr_2.c **** 
  78:Generated_Source\PSoC5/isr_2.c **** /*******************************************************************************
  79:Generated_Source\PSoC5/isr_2.c **** * Function Name: isr_2_StartEx
  80:Generated_Source\PSoC5/isr_2.c **** ********************************************************************************
  81:Generated_Source\PSoC5/isr_2.c **** *
  82:Generated_Source\PSoC5/isr_2.c **** * Summary:
  83:Generated_Source\PSoC5/isr_2.c **** *  Sets up the interrupt and enables it. This function disables the interrupt,
  84:Generated_Source\PSoC5/isr_2.c **** *  sets the interrupt vector based on the address passed in, sets the priority 
  85:Generated_Source\PSoC5/isr_2.c **** *  from the value in the Design Wide Resources Interrupt Editor, then enables 
  86:Generated_Source\PSoC5/isr_2.c **** *  the interrupt to the interrupt controller.
  87:Generated_Source\PSoC5/isr_2.c **** *  
ARM GAS  C:\Users\tmj32\AppData\Local\Temp\ccUJSuOK.s 			page 3


  88:Generated_Source\PSoC5/isr_2.c **** *  When defining ISR functions, the CY_ISR and CY_ISR_PROTO macros should be 
  89:Generated_Source\PSoC5/isr_2.c **** *  used to provide consistent definition across compilers:
  90:Generated_Source\PSoC5/isr_2.c **** *  
  91:Generated_Source\PSoC5/isr_2.c **** *  Function definition example:
  92:Generated_Source\PSoC5/isr_2.c **** *   CY_ISR(MyISR)
  93:Generated_Source\PSoC5/isr_2.c **** *   {
  94:Generated_Source\PSoC5/isr_2.c **** *   }
  95:Generated_Source\PSoC5/isr_2.c **** *   Function prototype example:
  96:Generated_Source\PSoC5/isr_2.c **** *   CY_ISR_PROTO(MyISR);
  97:Generated_Source\PSoC5/isr_2.c **** *
  98:Generated_Source\PSoC5/isr_2.c **** * Parameters:  
  99:Generated_Source\PSoC5/isr_2.c **** *   address: Address of the ISR to set in the interrupt vector table.
 100:Generated_Source\PSoC5/isr_2.c **** *
 101:Generated_Source\PSoC5/isr_2.c **** * Return:
 102:Generated_Source\PSoC5/isr_2.c **** *   None
 103:Generated_Source\PSoC5/isr_2.c **** *
 104:Generated_Source\PSoC5/isr_2.c **** *******************************************************************************/
 105:Generated_Source\PSoC5/isr_2.c **** void isr_2_StartEx(cyisraddress address)
 106:Generated_Source\PSoC5/isr_2.c **** {
 107:Generated_Source\PSoC5/isr_2.c ****     /* For all we know the interrupt is active. */
 108:Generated_Source\PSoC5/isr_2.c ****     isr_2_Disable();
 109:Generated_Source\PSoC5/isr_2.c **** 
 110:Generated_Source\PSoC5/isr_2.c ****     /* Set the ISR to point to the isr_2 Interrupt. */
 111:Generated_Source\PSoC5/isr_2.c ****     isr_2_SetVector(address);
 112:Generated_Source\PSoC5/isr_2.c **** 
 113:Generated_Source\PSoC5/isr_2.c ****     /* Set the priority. */
 114:Generated_Source\PSoC5/isr_2.c ****     isr_2_SetPriority((uint8)isr_2_INTC_PRIOR_NUMBER);
 115:Generated_Source\PSoC5/isr_2.c **** 
 116:Generated_Source\PSoC5/isr_2.c ****     /* Enable it. */
 117:Generated_Source\PSoC5/isr_2.c ****     isr_2_Enable();
 118:Generated_Source\PSoC5/isr_2.c **** }
 119:Generated_Source\PSoC5/isr_2.c **** 
 120:Generated_Source\PSoC5/isr_2.c **** 
 121:Generated_Source\PSoC5/isr_2.c **** /*******************************************************************************
 122:Generated_Source\PSoC5/isr_2.c **** * Function Name: isr_2_Stop
 123:Generated_Source\PSoC5/isr_2.c **** ********************************************************************************
 124:Generated_Source\PSoC5/isr_2.c **** *
 125:Generated_Source\PSoC5/isr_2.c **** * Summary:
 126:Generated_Source\PSoC5/isr_2.c **** *   Disables and removes the interrupt.
 127:Generated_Source\PSoC5/isr_2.c **** *
 128:Generated_Source\PSoC5/isr_2.c **** * Parameters:  
 129:Generated_Source\PSoC5/isr_2.c **** *   None
 130:Generated_Source\PSoC5/isr_2.c **** *
 131:Generated_Source\PSoC5/isr_2.c **** * Return:
 132:Generated_Source\PSoC5/isr_2.c **** *   None
 133:Generated_Source\PSoC5/isr_2.c **** *
 134:Generated_Source\PSoC5/isr_2.c **** *******************************************************************************/
 135:Generated_Source\PSoC5/isr_2.c **** void isr_2_Stop(void)
 136:Generated_Source\PSoC5/isr_2.c **** {
 137:Generated_Source\PSoC5/isr_2.c ****     /* Disable this interrupt. */
 138:Generated_Source\PSoC5/isr_2.c ****     isr_2_Disable();
 139:Generated_Source\PSoC5/isr_2.c **** 
 140:Generated_Source\PSoC5/isr_2.c ****     /* Set the ISR to point to the passive one. */
 141:Generated_Source\PSoC5/isr_2.c ****     isr_2_SetVector(&IntDefaultHandler);
 142:Generated_Source\PSoC5/isr_2.c **** }
 143:Generated_Source\PSoC5/isr_2.c **** 
 144:Generated_Source\PSoC5/isr_2.c **** 
ARM GAS  C:\Users\tmj32\AppData\Local\Temp\ccUJSuOK.s 			page 4


 145:Generated_Source\PSoC5/isr_2.c **** /*******************************************************************************
 146:Generated_Source\PSoC5/isr_2.c **** * Function Name: isr_2_Interrupt
 147:Generated_Source\PSoC5/isr_2.c **** ********************************************************************************
 148:Generated_Source\PSoC5/isr_2.c **** *
 149:Generated_Source\PSoC5/isr_2.c **** * Summary:
 150:Generated_Source\PSoC5/isr_2.c **** *   The default Interrupt Service Routine for isr_2.
 151:Generated_Source\PSoC5/isr_2.c **** *
 152:Generated_Source\PSoC5/isr_2.c **** *   Add custom code between the coments to keep the next version of this file
 153:Generated_Source\PSoC5/isr_2.c **** *   from over writting your code.
 154:Generated_Source\PSoC5/isr_2.c **** *
 155:Generated_Source\PSoC5/isr_2.c **** * Parameters:  
 156:Generated_Source\PSoC5/isr_2.c **** *
 157:Generated_Source\PSoC5/isr_2.c **** * Return:
 158:Generated_Source\PSoC5/isr_2.c **** *   None
 159:Generated_Source\PSoC5/isr_2.c **** *
 160:Generated_Source\PSoC5/isr_2.c **** *******************************************************************************/
 161:Generated_Source\PSoC5/isr_2.c **** CY_ISR(isr_2_Interrupt)
 162:Generated_Source\PSoC5/isr_2.c **** {
 163:Generated_Source\PSoC5/isr_2.c ****     #ifdef isr_2_INTERRUPT_INTERRUPT_CALLBACK
 164:Generated_Source\PSoC5/isr_2.c ****         isr_2_Interrupt_InterruptCallback();
 165:Generated_Source\PSoC5/isr_2.c ****     #endif /* isr_2_INTERRUPT_INTERRUPT_CALLBACK */ 
 166:Generated_Source\PSoC5/isr_2.c **** 
 167:Generated_Source\PSoC5/isr_2.c ****     /*  Place your Interrupt code here. */
 168:Generated_Source\PSoC5/isr_2.c ****     /* `#START isr_2_Interrupt` */
 169:Generated_Source\PSoC5/isr_2.c ****     int x = 25;
 170:Generated_Source\PSoC5/isr_2.c ****     char str1[15];
 171:Generated_Source\PSoC5/isr_2.c ****     
 172:Generated_Source\PSoC5/isr_2.c ****     while (x>0)
 173:Generated_Source\PSoC5/isr_2.c ****     {
 174:Generated_Source\PSoC5/isr_2.c ****         PWM_1_WriteCompare(x);
 175:Generated_Source\PSoC5/isr_2.c ****         x = x - 1;
 176:Generated_Source\PSoC5/isr_2.c ****         LCD_ClearDisplay();
 177:Generated_Source\PSoC5/isr_2.c ****         LCD_Position(0,0);
 178:Generated_Source\PSoC5/isr_2.c ****         sprintf(str1, "%d",x );
 179:Generated_Source\PSoC5/isr_2.c ****         LCD_PrintString(str1);
 180:Generated_Source\PSoC5/isr_2.c ****         CyDelay(10);
 181:Generated_Source\PSoC5/isr_2.c ****     }
 182:Generated_Source\PSoC5/isr_2.c ****     
 183:Generated_Source\PSoC5/isr_2.c ****     isr_2_Stop();
 184:Generated_Source\PSoC5/isr_2.c ****     /* `#END` */
 185:Generated_Source\PSoC5/isr_2.c **** }
 186:Generated_Source\PSoC5/isr_2.c **** 
 187:Generated_Source\PSoC5/isr_2.c **** 
 188:Generated_Source\PSoC5/isr_2.c **** /*******************************************************************************
 189:Generated_Source\PSoC5/isr_2.c **** * Function Name: isr_2_SetVector
 190:Generated_Source\PSoC5/isr_2.c **** ********************************************************************************
 191:Generated_Source\PSoC5/isr_2.c **** *
 192:Generated_Source\PSoC5/isr_2.c **** * Summary:
 193:Generated_Source\PSoC5/isr_2.c **** *   Change the ISR vector for the Interrupt. Note calling isr_2_Start
 194:Generated_Source\PSoC5/isr_2.c **** *   will override any effect this method would have had. To set the vector 
 195:Generated_Source\PSoC5/isr_2.c **** *   before the component has been started use isr_2_StartEx instead.
 196:Generated_Source\PSoC5/isr_2.c **** * 
 197:Generated_Source\PSoC5/isr_2.c **** *   When defining ISR functions, the CY_ISR and CY_ISR_PROTO macros should be 
 198:Generated_Source\PSoC5/isr_2.c **** *   used to provide consistent definition across compilers:
 199:Generated_Source\PSoC5/isr_2.c **** *
 200:Generated_Source\PSoC5/isr_2.c **** *   Function definition example:
 201:Generated_Source\PSoC5/isr_2.c **** *   CY_ISR(MyISR)
ARM GAS  C:\Users\tmj32\AppData\Local\Temp\ccUJSuOK.s 			page 5


 202:Generated_Source\PSoC5/isr_2.c **** *   {
 203:Generated_Source\PSoC5/isr_2.c **** *   }
 204:Generated_Source\PSoC5/isr_2.c **** *
 205:Generated_Source\PSoC5/isr_2.c **** *   Function prototype example:
 206:Generated_Source\PSoC5/isr_2.c **** *     CY_ISR_PROTO(MyISR);
 207:Generated_Source\PSoC5/isr_2.c **** *
 208:Generated_Source\PSoC5/isr_2.c **** * Parameters:
 209:Generated_Source\PSoC5/isr_2.c **** *   address: Address of the ISR to set in the interrupt vector table.
 210:Generated_Source\PSoC5/isr_2.c **** *
 211:Generated_Source\PSoC5/isr_2.c **** * Return:
 212:Generated_Source\PSoC5/isr_2.c **** *   None
 213:Generated_Source\PSoC5/isr_2.c **** *
 214:Generated_Source\PSoC5/isr_2.c **** *******************************************************************************/
 215:Generated_Source\PSoC5/isr_2.c **** void isr_2_SetVector(cyisraddress address)
 216:Generated_Source\PSoC5/isr_2.c **** {
  28              		.loc 1 216 0
  29              		.cfi_startproc
  30              		@ args = 0, pretend = 0, frame = 0
  31              		@ frame_needed = 0, uses_anonymous_args = 0
  32              		@ link register save eliminated.
  33              	.LVL0:
 217:Generated_Source\PSoC5/isr_2.c ****     cyisraddress * ramVectorTable;
 218:Generated_Source\PSoC5/isr_2.c **** 
 219:Generated_Source\PSoC5/isr_2.c ****     ramVectorTable = (cyisraddress *) *CYINT_VECT_TABLE;
  34              		.loc 1 219 0
  35 0000 014B     		ldr	r3, .L2
  36 0002 1B68     		ldr	r3, [r3]
  37              	.LVL1:
 220:Generated_Source\PSoC5/isr_2.c **** 
 221:Generated_Source\PSoC5/isr_2.c ****     ramVectorTable[CYINT_IRQ_BASE + (uint32)isr_2__INTC_NUMBER] = address;
  38              		.loc 1 221 0
  39 0004 5864     		str	r0, [r3, #68]
  40 0006 7047     		bx	lr
  41              	.L3:
  42              		.align	2
  43              	.L2:
  44 0008 08ED00E0 		.word	-536810232
  45              		.cfi_endproc
  46              	.LFE68:
  47              		.size	isr_2_SetVector, .-isr_2_SetVector
  48              		.section	.text.isr_2_GetVector,"ax",%progbits
  49              		.align	2
  50              		.global	isr_2_GetVector
  51              		.thumb
  52              		.thumb_func
  53              		.type	isr_2_GetVector, %function
  54              	isr_2_GetVector:
  55              	.LFB69:
 222:Generated_Source\PSoC5/isr_2.c **** }
 223:Generated_Source\PSoC5/isr_2.c **** 
 224:Generated_Source\PSoC5/isr_2.c **** 
 225:Generated_Source\PSoC5/isr_2.c **** /*******************************************************************************
 226:Generated_Source\PSoC5/isr_2.c **** * Function Name: isr_2_GetVector
 227:Generated_Source\PSoC5/isr_2.c **** ********************************************************************************
 228:Generated_Source\PSoC5/isr_2.c **** *
 229:Generated_Source\PSoC5/isr_2.c **** * Summary:
 230:Generated_Source\PSoC5/isr_2.c **** *   Gets the "address" of the current ISR vector for the Interrupt.
ARM GAS  C:\Users\tmj32\AppData\Local\Temp\ccUJSuOK.s 			page 6


 231:Generated_Source\PSoC5/isr_2.c **** *
 232:Generated_Source\PSoC5/isr_2.c **** * Parameters:
 233:Generated_Source\PSoC5/isr_2.c **** *   None
 234:Generated_Source\PSoC5/isr_2.c **** *
 235:Generated_Source\PSoC5/isr_2.c **** * Return:
 236:Generated_Source\PSoC5/isr_2.c **** *   Address of the ISR in the interrupt vector table.
 237:Generated_Source\PSoC5/isr_2.c **** *
 238:Generated_Source\PSoC5/isr_2.c **** *******************************************************************************/
 239:Generated_Source\PSoC5/isr_2.c **** cyisraddress isr_2_GetVector(void)
 240:Generated_Source\PSoC5/isr_2.c **** {
  56              		.loc 1 240 0
  57              		.cfi_startproc
  58              		@ args = 0, pretend = 0, frame = 0
  59              		@ frame_needed = 0, uses_anonymous_args = 0
  60              		@ link register save eliminated.
 241:Generated_Source\PSoC5/isr_2.c ****     cyisraddress * ramVectorTable;
 242:Generated_Source\PSoC5/isr_2.c **** 
 243:Generated_Source\PSoC5/isr_2.c ****     ramVectorTable = (cyisraddress *) *CYINT_VECT_TABLE;
  61              		.loc 1 243 0
  62 0000 014B     		ldr	r3, .L5
  63 0002 1B68     		ldr	r3, [r3]
  64              	.LVL2:
 244:Generated_Source\PSoC5/isr_2.c **** 
 245:Generated_Source\PSoC5/isr_2.c ****     return ramVectorTable[CYINT_IRQ_BASE + (uint32)isr_2__INTC_NUMBER];
 246:Generated_Source\PSoC5/isr_2.c **** }
  65              		.loc 1 246 0
  66 0004 586C     		ldr	r0, [r3, #68]
  67 0006 7047     		bx	lr
  68              	.L6:
  69              		.align	2
  70              	.L5:
  71 0008 08ED00E0 		.word	-536810232
  72              		.cfi_endproc
  73              	.LFE69:
  74              		.size	isr_2_GetVector, .-isr_2_GetVector
  75              		.section	.text.isr_2_SetPriority,"ax",%progbits
  76              		.align	2
  77              		.global	isr_2_SetPriority
  78              		.thumb
  79              		.thumb_func
  80              		.type	isr_2_SetPriority, %function
  81              	isr_2_SetPriority:
  82              	.LFB70:
 247:Generated_Source\PSoC5/isr_2.c **** 
 248:Generated_Source\PSoC5/isr_2.c **** 
 249:Generated_Source\PSoC5/isr_2.c **** /*******************************************************************************
 250:Generated_Source\PSoC5/isr_2.c **** * Function Name: isr_2_SetPriority
 251:Generated_Source\PSoC5/isr_2.c **** ********************************************************************************
 252:Generated_Source\PSoC5/isr_2.c **** *
 253:Generated_Source\PSoC5/isr_2.c **** * Summary:
 254:Generated_Source\PSoC5/isr_2.c **** *   Sets the Priority of the Interrupt. 
 255:Generated_Source\PSoC5/isr_2.c **** *
 256:Generated_Source\PSoC5/isr_2.c **** *   Note calling isr_2_Start or isr_2_StartEx will 
 257:Generated_Source\PSoC5/isr_2.c **** *   override any effect this API would have had. This API should only be called
 258:Generated_Source\PSoC5/isr_2.c **** *   after isr_2_Start or isr_2_StartEx has been called. 
 259:Generated_Source\PSoC5/isr_2.c **** *   To set the initial priority for the component, use the Design-Wide Resources
 260:Generated_Source\PSoC5/isr_2.c **** *   Interrupt Editor.
ARM GAS  C:\Users\tmj32\AppData\Local\Temp\ccUJSuOK.s 			page 7


 261:Generated_Source\PSoC5/isr_2.c **** *
 262:Generated_Source\PSoC5/isr_2.c **** *   Note This API has no effect on Non-maskable interrupt NMI).
 263:Generated_Source\PSoC5/isr_2.c **** *
 264:Generated_Source\PSoC5/isr_2.c **** * Parameters:
 265:Generated_Source\PSoC5/isr_2.c **** *   priority: Priority of the interrupt, 0 being the highest priority
 266:Generated_Source\PSoC5/isr_2.c **** *             PSoC 3 and PSoC 5LP: Priority is from 0 to 7.
 267:Generated_Source\PSoC5/isr_2.c **** *             PSoC 4: Priority is from 0 to 3.
 268:Generated_Source\PSoC5/isr_2.c **** *
 269:Generated_Source\PSoC5/isr_2.c **** * Return:
 270:Generated_Source\PSoC5/isr_2.c **** *   None
 271:Generated_Source\PSoC5/isr_2.c **** *
 272:Generated_Source\PSoC5/isr_2.c **** *******************************************************************************/
 273:Generated_Source\PSoC5/isr_2.c **** void isr_2_SetPriority(uint8 priority)
 274:Generated_Source\PSoC5/isr_2.c **** {
  83              		.loc 1 274 0
  84              		.cfi_startproc
  85              		@ args = 0, pretend = 0, frame = 0
  86              		@ frame_needed = 0, uses_anonymous_args = 0
  87              		@ link register save eliminated.
  88              	.LVL3:
 275:Generated_Source\PSoC5/isr_2.c ****     *isr_2_INTC_PRIOR = priority << 5;
  89              		.loc 1 275 0
  90 0000 4001     		lsls	r0, r0, #5
  91              	.LVL4:
  92 0002 C0B2     		uxtb	r0, r0
  93 0004 014B     		ldr	r3, .L8
  94 0006 1870     		strb	r0, [r3]
  95 0008 7047     		bx	lr
  96              	.L9:
  97 000a 00BF     		.align	2
  98              	.L8:
  99 000c 01E400E0 		.word	-536812543
 100              		.cfi_endproc
 101              	.LFE70:
 102              		.size	isr_2_SetPriority, .-isr_2_SetPriority
 103              		.section	.text.isr_2_GetPriority,"ax",%progbits
 104              		.align	2
 105              		.global	isr_2_GetPriority
 106              		.thumb
 107              		.thumb_func
 108              		.type	isr_2_GetPriority, %function
 109              	isr_2_GetPriority:
 110              	.LFB71:
 276:Generated_Source\PSoC5/isr_2.c **** }
 277:Generated_Source\PSoC5/isr_2.c **** 
 278:Generated_Source\PSoC5/isr_2.c **** 
 279:Generated_Source\PSoC5/isr_2.c **** /*******************************************************************************
 280:Generated_Source\PSoC5/isr_2.c **** * Function Name: isr_2_GetPriority
 281:Generated_Source\PSoC5/isr_2.c **** ********************************************************************************
 282:Generated_Source\PSoC5/isr_2.c **** *
 283:Generated_Source\PSoC5/isr_2.c **** * Summary:
 284:Generated_Source\PSoC5/isr_2.c **** *   Gets the Priority of the Interrupt.
 285:Generated_Source\PSoC5/isr_2.c **** *
 286:Generated_Source\PSoC5/isr_2.c **** * Parameters:
 287:Generated_Source\PSoC5/isr_2.c **** *   None
 288:Generated_Source\PSoC5/isr_2.c **** *
 289:Generated_Source\PSoC5/isr_2.c **** * Return:
ARM GAS  C:\Users\tmj32\AppData\Local\Temp\ccUJSuOK.s 			page 8


 290:Generated_Source\PSoC5/isr_2.c **** *   Priority of the interrupt, 0 being the highest priority
 291:Generated_Source\PSoC5/isr_2.c **** *    PSoC 3 and PSoC 5LP: Priority is from 0 to 7.
 292:Generated_Source\PSoC5/isr_2.c **** *    PSoC 4: Priority is from 0 to 3.
 293:Generated_Source\PSoC5/isr_2.c **** *
 294:Generated_Source\PSoC5/isr_2.c **** *******************************************************************************/
 295:Generated_Source\PSoC5/isr_2.c **** uint8 isr_2_GetPriority(void)
 296:Generated_Source\PSoC5/isr_2.c **** {
 111              		.loc 1 296 0
 112              		.cfi_startproc
 113              		@ args = 0, pretend = 0, frame = 0
 114              		@ frame_needed = 0, uses_anonymous_args = 0
 115              		@ link register save eliminated.
 297:Generated_Source\PSoC5/isr_2.c ****     uint8 priority;
 298:Generated_Source\PSoC5/isr_2.c **** 
 299:Generated_Source\PSoC5/isr_2.c **** 
 300:Generated_Source\PSoC5/isr_2.c ****     priority = *isr_2_INTC_PRIOR >> 5;
 116              		.loc 1 300 0
 117 0000 014B     		ldr	r3, .L11
 118 0002 1878     		ldrb	r0, [r3]	@ zero_extendqisi2
 119              	.LVL5:
 301:Generated_Source\PSoC5/isr_2.c **** 
 302:Generated_Source\PSoC5/isr_2.c ****     return priority;
 303:Generated_Source\PSoC5/isr_2.c **** }
 120              		.loc 1 303 0
 121 0004 4009     		lsrs	r0, r0, #5
 122              	.LVL6:
 123 0006 7047     		bx	lr
 124              	.L12:
 125              		.align	2
 126              	.L11:
 127 0008 01E400E0 		.word	-536812543
 128              		.cfi_endproc
 129              	.LFE71:
 130              		.size	isr_2_GetPriority, .-isr_2_GetPriority
 131              		.section	.text.isr_2_Enable,"ax",%progbits
 132              		.align	2
 133              		.global	isr_2_Enable
 134              		.thumb
 135              		.thumb_func
 136              		.type	isr_2_Enable, %function
 137              	isr_2_Enable:
 138              	.LFB72:
 304:Generated_Source\PSoC5/isr_2.c **** 
 305:Generated_Source\PSoC5/isr_2.c **** 
 306:Generated_Source\PSoC5/isr_2.c **** /*******************************************************************************
 307:Generated_Source\PSoC5/isr_2.c **** * Function Name: isr_2_Enable
 308:Generated_Source\PSoC5/isr_2.c **** ********************************************************************************
 309:Generated_Source\PSoC5/isr_2.c **** *
 310:Generated_Source\PSoC5/isr_2.c **** * Summary:
 311:Generated_Source\PSoC5/isr_2.c **** *   Enables the interrupt to the interrupt controller. Do not call this function
 312:Generated_Source\PSoC5/isr_2.c **** *   unless ISR_Start() has been called or the functionality of the ISR_Start() 
 313:Generated_Source\PSoC5/isr_2.c **** *   function, which sets the vector and the priority, has been called.
 314:Generated_Source\PSoC5/isr_2.c **** *
 315:Generated_Source\PSoC5/isr_2.c **** * Parameters:
 316:Generated_Source\PSoC5/isr_2.c **** *   None
 317:Generated_Source\PSoC5/isr_2.c **** *
 318:Generated_Source\PSoC5/isr_2.c **** * Return:
ARM GAS  C:\Users\tmj32\AppData\Local\Temp\ccUJSuOK.s 			page 9


 319:Generated_Source\PSoC5/isr_2.c **** *   None
 320:Generated_Source\PSoC5/isr_2.c **** *
 321:Generated_Source\PSoC5/isr_2.c **** *******************************************************************************/
 322:Generated_Source\PSoC5/isr_2.c **** void isr_2_Enable(void)
 323:Generated_Source\PSoC5/isr_2.c **** {
 139              		.loc 1 323 0
 140              		.cfi_startproc
 141              		@ args = 0, pretend = 0, frame = 0
 142              		@ frame_needed = 0, uses_anonymous_args = 0
 143              		@ link register save eliminated.
 324:Generated_Source\PSoC5/isr_2.c ****     /* Enable the general interrupt. */
 325:Generated_Source\PSoC5/isr_2.c ****     *isr_2_INTC_SET_EN = isr_2__INTC_MASK;
 144              		.loc 1 325 0
 145 0000 0222     		movs	r2, #2
 146 0002 014B     		ldr	r3, .L14
 147 0004 1A60     		str	r2, [r3]
 148 0006 7047     		bx	lr
 149              	.L15:
 150              		.align	2
 151              	.L14:
 152 0008 00E100E0 		.word	-536813312
 153              		.cfi_endproc
 154              	.LFE72:
 155              		.size	isr_2_Enable, .-isr_2_Enable
 156              		.section	.text.isr_2_GetState,"ax",%progbits
 157              		.align	2
 158              		.global	isr_2_GetState
 159              		.thumb
 160              		.thumb_func
 161              		.type	isr_2_GetState, %function
 162              	isr_2_GetState:
 163              	.LFB73:
 326:Generated_Source\PSoC5/isr_2.c **** }
 327:Generated_Source\PSoC5/isr_2.c **** 
 328:Generated_Source\PSoC5/isr_2.c **** 
 329:Generated_Source\PSoC5/isr_2.c **** /*******************************************************************************
 330:Generated_Source\PSoC5/isr_2.c **** * Function Name: isr_2_GetState
 331:Generated_Source\PSoC5/isr_2.c **** ********************************************************************************
 332:Generated_Source\PSoC5/isr_2.c **** *
 333:Generated_Source\PSoC5/isr_2.c **** * Summary:
 334:Generated_Source\PSoC5/isr_2.c **** *   Gets the state (enabled, disabled) of the Interrupt.
 335:Generated_Source\PSoC5/isr_2.c **** *
 336:Generated_Source\PSoC5/isr_2.c **** * Parameters:
 337:Generated_Source\PSoC5/isr_2.c **** *   None
 338:Generated_Source\PSoC5/isr_2.c **** *
 339:Generated_Source\PSoC5/isr_2.c **** * Return:
 340:Generated_Source\PSoC5/isr_2.c **** *   1 if enabled, 0 if disabled.
 341:Generated_Source\PSoC5/isr_2.c **** *
 342:Generated_Source\PSoC5/isr_2.c **** *******************************************************************************/
 343:Generated_Source\PSoC5/isr_2.c **** uint8 isr_2_GetState(void)
 344:Generated_Source\PSoC5/isr_2.c **** {
 164              		.loc 1 344 0
 165              		.cfi_startproc
 166              		@ args = 0, pretend = 0, frame = 0
 167              		@ frame_needed = 0, uses_anonymous_args = 0
 168              		@ link register save eliminated.
 345:Generated_Source\PSoC5/isr_2.c ****     /* Get the state of the general interrupt. */
ARM GAS  C:\Users\tmj32\AppData\Local\Temp\ccUJSuOK.s 			page 10


 346:Generated_Source\PSoC5/isr_2.c ****     return ((*isr_2_INTC_SET_EN & (uint32)isr_2__INTC_MASK) != 0u) ? 1u:0u;
 169              		.loc 1 346 0
 170 0000 044B     		ldr	r3, .L19
 171 0002 1B68     		ldr	r3, [r3]
 172 0004 13F0020F 		tst	r3, #2
 173 0008 01D0     		beq	.L18
 174 000a 0120     		movs	r0, #1
 175 000c 7047     		bx	lr
 176              	.L18:
 177 000e 0020     		movs	r0, #0
 347:Generated_Source\PSoC5/isr_2.c **** }
 178              		.loc 1 347 0
 179 0010 7047     		bx	lr
 180              	.L20:
 181 0012 00BF     		.align	2
 182              	.L19:
 183 0014 00E100E0 		.word	-536813312
 184              		.cfi_endproc
 185              	.LFE73:
 186              		.size	isr_2_GetState, .-isr_2_GetState
 187              		.section	.text.isr_2_Disable,"ax",%progbits
 188              		.align	2
 189              		.global	isr_2_Disable
 190              		.thumb
 191              		.thumb_func
 192              		.type	isr_2_Disable, %function
 193              	isr_2_Disable:
 194              	.LFB74:
 348:Generated_Source\PSoC5/isr_2.c **** 
 349:Generated_Source\PSoC5/isr_2.c **** 
 350:Generated_Source\PSoC5/isr_2.c **** /*******************************************************************************
 351:Generated_Source\PSoC5/isr_2.c **** * Function Name: isr_2_Disable
 352:Generated_Source\PSoC5/isr_2.c **** ********************************************************************************
 353:Generated_Source\PSoC5/isr_2.c **** *
 354:Generated_Source\PSoC5/isr_2.c **** * Summary:
 355:Generated_Source\PSoC5/isr_2.c **** *   Disables the Interrupt in the interrupt controller.
 356:Generated_Source\PSoC5/isr_2.c **** *
 357:Generated_Source\PSoC5/isr_2.c **** * Parameters:
 358:Generated_Source\PSoC5/isr_2.c **** *   None
 359:Generated_Source\PSoC5/isr_2.c **** *
 360:Generated_Source\PSoC5/isr_2.c **** * Return:
 361:Generated_Source\PSoC5/isr_2.c **** *   None
 362:Generated_Source\PSoC5/isr_2.c **** *
 363:Generated_Source\PSoC5/isr_2.c **** *******************************************************************************/
 364:Generated_Source\PSoC5/isr_2.c **** void isr_2_Disable(void)
 365:Generated_Source\PSoC5/isr_2.c **** {
 195              		.loc 1 365 0
 196              		.cfi_startproc
 197              		@ args = 0, pretend = 0, frame = 0
 198              		@ frame_needed = 0, uses_anonymous_args = 0
 199              		@ link register save eliminated.
 366:Generated_Source\PSoC5/isr_2.c ****     /* Disable the general interrupt. */
 367:Generated_Source\PSoC5/isr_2.c ****     *isr_2_INTC_CLR_EN = isr_2__INTC_MASK;
 200              		.loc 1 367 0
 201 0000 0222     		movs	r2, #2
 202 0002 014B     		ldr	r3, .L22
 203 0004 1A60     		str	r2, [r3]
ARM GAS  C:\Users\tmj32\AppData\Local\Temp\ccUJSuOK.s 			page 11


 204 0006 7047     		bx	lr
 205              	.L23:
 206              		.align	2
 207              	.L22:
 208 0008 80E100E0 		.word	-536813184
 209              		.cfi_endproc
 210              	.LFE74:
 211              		.size	isr_2_Disable, .-isr_2_Disable
 212              		.section	.text.isr_2_Start,"ax",%progbits
 213              		.align	2
 214              		.global	isr_2_Start
 215              		.thumb
 216              		.thumb_func
 217              		.type	isr_2_Start, %function
 218              	isr_2_Start:
 219              	.LFB64:
  63:Generated_Source\PSoC5/isr_2.c ****     /* For all we know the interrupt is active. */
 220              		.loc 1 63 0
 221              		.cfi_startproc
 222              		@ args = 0, pretend = 0, frame = 0
 223              		@ frame_needed = 0, uses_anonymous_args = 0
 224 0000 08B5     		push	{r3, lr}
 225              		.cfi_def_cfa_offset 8
 226              		.cfi_offset 3, -8
 227              		.cfi_offset 14, -4
  65:Generated_Source\PSoC5/isr_2.c **** 
 228              		.loc 1 65 0
 229 0002 FFF7FEFF 		bl	isr_2_Disable
 230              	.LVL7:
  68:Generated_Source\PSoC5/isr_2.c **** 
 231              		.loc 1 68 0
 232 0006 0448     		ldr	r0, .L26
 233 0008 FFF7FEFF 		bl	isr_2_SetVector
 234              	.LVL8:
  71:Generated_Source\PSoC5/isr_2.c **** 
 235              		.loc 1 71 0
 236 000c 0720     		movs	r0, #7
 237 000e FFF7FEFF 		bl	isr_2_SetPriority
 238              	.LVL9:
  74:Generated_Source\PSoC5/isr_2.c **** }
 239              		.loc 1 74 0
 240 0012 FFF7FEFF 		bl	isr_2_Enable
 241              	.LVL10:
 242 0016 08BD     		pop	{r3, pc}
 243              	.L27:
 244              		.align	2
 245              	.L26:
 246 0018 00000000 		.word	isr_2_Interrupt
 247              		.cfi_endproc
 248              	.LFE64:
 249              		.size	isr_2_Start, .-isr_2_Start
 250              		.section	.text.isr_2_StartEx,"ax",%progbits
 251              		.align	2
 252              		.global	isr_2_StartEx
 253              		.thumb
 254              		.thumb_func
 255              		.type	isr_2_StartEx, %function
ARM GAS  C:\Users\tmj32\AppData\Local\Temp\ccUJSuOK.s 			page 12


 256              	isr_2_StartEx:
 257              	.LFB65:
 106:Generated_Source\PSoC5/isr_2.c ****     /* For all we know the interrupt is active. */
 258              		.loc 1 106 0
 259              		.cfi_startproc
 260              		@ args = 0, pretend = 0, frame = 0
 261              		@ frame_needed = 0, uses_anonymous_args = 0
 262              	.LVL11:
 263 0000 10B5     		push	{r4, lr}
 264              		.cfi_def_cfa_offset 8
 265              		.cfi_offset 4, -8
 266              		.cfi_offset 14, -4
 267 0002 0446     		mov	r4, r0
 108:Generated_Source\PSoC5/isr_2.c **** 
 268              		.loc 1 108 0
 269 0004 FFF7FEFF 		bl	isr_2_Disable
 270              	.LVL12:
 111:Generated_Source\PSoC5/isr_2.c **** 
 271              		.loc 1 111 0
 272 0008 2046     		mov	r0, r4
 273 000a FFF7FEFF 		bl	isr_2_SetVector
 274              	.LVL13:
 114:Generated_Source\PSoC5/isr_2.c **** 
 275              		.loc 1 114 0
 276 000e 0720     		movs	r0, #7
 277 0010 FFF7FEFF 		bl	isr_2_SetPriority
 278              	.LVL14:
 117:Generated_Source\PSoC5/isr_2.c **** }
 279              		.loc 1 117 0
 280 0014 FFF7FEFF 		bl	isr_2_Enable
 281              	.LVL15:
 282 0018 10BD     		pop	{r4, pc}
 283              		.cfi_endproc
 284              	.LFE65:
 285              		.size	isr_2_StartEx, .-isr_2_StartEx
 286 001a 00BF     		.section	.text.isr_2_Stop,"ax",%progbits
 287              		.align	2
 288              		.global	isr_2_Stop
 289              		.thumb
 290              		.thumb_func
 291              		.type	isr_2_Stop, %function
 292              	isr_2_Stop:
 293              	.LFB66:
 136:Generated_Source\PSoC5/isr_2.c ****     /* Disable this interrupt. */
 294              		.loc 1 136 0
 295              		.cfi_startproc
 296              		@ args = 0, pretend = 0, frame = 0
 297              		@ frame_needed = 0, uses_anonymous_args = 0
 298 0000 08B5     		push	{r3, lr}
 299              		.cfi_def_cfa_offset 8
 300              		.cfi_offset 3, -8
 301              		.cfi_offset 14, -4
 138:Generated_Source\PSoC5/isr_2.c **** 
 302              		.loc 1 138 0
 303 0002 FFF7FEFF 		bl	isr_2_Disable
 304              	.LVL16:
 141:Generated_Source\PSoC5/isr_2.c **** }
ARM GAS  C:\Users\tmj32\AppData\Local\Temp\ccUJSuOK.s 			page 13


 305              		.loc 1 141 0
 306 0006 0248     		ldr	r0, .L32
 307 0008 FFF7FEFF 		bl	isr_2_SetVector
 308              	.LVL17:
 309 000c 08BD     		pop	{r3, pc}
 310              	.L33:
 311 000e 00BF     		.align	2
 312              	.L32:
 313 0010 00000000 		.word	IntDefaultHandler
 314              		.cfi_endproc
 315              	.LFE66:
 316              		.size	isr_2_Stop, .-isr_2_Stop
 317              		.section	.text.isr_2_Interrupt,"ax",%progbits
 318              		.align	2
 319              		.global	isr_2_Interrupt
 320              		.thumb
 321              		.thumb_func
 322              		.type	isr_2_Interrupt, %function
 323              	isr_2_Interrupt:
 324              	.LFB67:
 162:Generated_Source\PSoC5/isr_2.c ****     #ifdef isr_2_INTERRUPT_INTERRUPT_CALLBACK
 325              		.loc 1 162 0
 326              		.cfi_startproc
 327              		@ args = 0, pretend = 0, frame = 16
 328              		@ frame_needed = 0, uses_anonymous_args = 0
 329 0000 10B5     		push	{r4, lr}
 330              		.cfi_def_cfa_offset 8
 331              		.cfi_offset 4, -8
 332              		.cfi_offset 14, -4
 333 0002 84B0     		sub	sp, sp, #16
 334              		.cfi_def_cfa_offset 24
 335              	.LVL18:
 169:Generated_Source\PSoC5/isr_2.c ****     char str1[15];
 336              		.loc 1 169 0
 337 0004 1924     		movs	r4, #25
 172:Generated_Source\PSoC5/isr_2.c ****     {
 338              		.loc 1 172 0
 339 0006 15E0     		b	.L35
 340              	.LVL19:
 341              	.L36:
 174:Generated_Source\PSoC5/isr_2.c ****         x = x - 1;
 342              		.loc 1 174 0
 343 0008 E0B2     		uxtb	r0, r4
 344 000a FFF7FEFF 		bl	PWM_1_WriteCompare
 345              	.LVL20:
 175:Generated_Source\PSoC5/isr_2.c ****         LCD_ClearDisplay();
 346              		.loc 1 175 0
 347 000e 013C     		subs	r4, r4, #1
 348              	.LVL21:
 176:Generated_Source\PSoC5/isr_2.c ****         LCD_Position(0,0);
 349              		.loc 1 176 0
 350 0010 0120     		movs	r0, #1
 351 0012 FFF7FEFF 		bl	LCD_WriteControl
 352              	.LVL22:
 177:Generated_Source\PSoC5/isr_2.c ****         sprintf(str1, "%d",x );
 353              		.loc 1 177 0
 354 0016 0021     		movs	r1, #0
ARM GAS  C:\Users\tmj32\AppData\Local\Temp\ccUJSuOK.s 			page 14


 355 0018 0846     		mov	r0, r1
 356 001a FFF7FEFF 		bl	LCD_Position
 357              	.LVL23:
 178:Generated_Source\PSoC5/isr_2.c ****         LCD_PrintString(str1);
 358              		.loc 1 178 0
 359 001e 2246     		mov	r2, r4
 360 0020 0749     		ldr	r1, .L38
 361 0022 6846     		mov	r0, sp
 362 0024 FFF7FEFF 		bl	sprintf
 363              	.LVL24:
 179:Generated_Source\PSoC5/isr_2.c ****         CyDelay(10);
 364              		.loc 1 179 0
 365 0028 6846     		mov	r0, sp
 366 002a FFF7FEFF 		bl	LCD_PrintString
 367              	.LVL25:
 180:Generated_Source\PSoC5/isr_2.c ****     }
 368              		.loc 1 180 0
 369 002e 0A20     		movs	r0, #10
 370 0030 FFF7FEFF 		bl	CyDelay
 371              	.LVL26:
 372              	.L35:
 172:Generated_Source\PSoC5/isr_2.c ****     {
 373              		.loc 1 172 0
 374 0034 002C     		cmp	r4, #0
 375 0036 E7DC     		bgt	.L36
 183:Generated_Source\PSoC5/isr_2.c ****     /* `#END` */
 376              		.loc 1 183 0
 377 0038 FFF7FEFF 		bl	isr_2_Stop
 378              	.LVL27:
 185:Generated_Source\PSoC5/isr_2.c **** 
 379              		.loc 1 185 0
 380 003c 04B0     		add	sp, sp, #16
 381              		.cfi_def_cfa_offset 8
 382              		@ sp needed
 383 003e 10BD     		pop	{r4, pc}
 384              	.LVL28:
 385              	.L39:
 386              		.align	2
 387              	.L38:
 388 0040 00000000 		.word	.LC0
 389              		.cfi_endproc
 390              	.LFE67:
 391              		.size	isr_2_Interrupt, .-isr_2_Interrupt
 392              		.section	.text.isr_2_SetPending,"ax",%progbits
 393              		.align	2
 394              		.global	isr_2_SetPending
 395              		.thumb
 396              		.thumb_func
 397              		.type	isr_2_SetPending, %function
 398              	isr_2_SetPending:
 399              	.LFB75:
 368:Generated_Source\PSoC5/isr_2.c **** }
 369:Generated_Source\PSoC5/isr_2.c **** 
 370:Generated_Source\PSoC5/isr_2.c **** 
 371:Generated_Source\PSoC5/isr_2.c **** /*******************************************************************************
 372:Generated_Source\PSoC5/isr_2.c **** * Function Name: isr_2_SetPending
 373:Generated_Source\PSoC5/isr_2.c **** ********************************************************************************
ARM GAS  C:\Users\tmj32\AppData\Local\Temp\ccUJSuOK.s 			page 15


 374:Generated_Source\PSoC5/isr_2.c **** *
 375:Generated_Source\PSoC5/isr_2.c **** * Summary:
 376:Generated_Source\PSoC5/isr_2.c **** *   Causes the Interrupt to enter the pending state, a software method of
 377:Generated_Source\PSoC5/isr_2.c **** *   generating the interrupt.
 378:Generated_Source\PSoC5/isr_2.c **** *
 379:Generated_Source\PSoC5/isr_2.c **** * Parameters:
 380:Generated_Source\PSoC5/isr_2.c **** *   None
 381:Generated_Source\PSoC5/isr_2.c **** *
 382:Generated_Source\PSoC5/isr_2.c **** * Return:
 383:Generated_Source\PSoC5/isr_2.c **** *   None
 384:Generated_Source\PSoC5/isr_2.c **** *
 385:Generated_Source\PSoC5/isr_2.c **** * Side Effects:
 386:Generated_Source\PSoC5/isr_2.c **** *   If interrupts are enabled and the interrupt is set up properly, the ISR is
 387:Generated_Source\PSoC5/isr_2.c **** *   entered (depending on the priority of this interrupt and other pending 
 388:Generated_Source\PSoC5/isr_2.c **** *   interrupts).
 389:Generated_Source\PSoC5/isr_2.c **** *
 390:Generated_Source\PSoC5/isr_2.c **** *******************************************************************************/
 391:Generated_Source\PSoC5/isr_2.c **** void isr_2_SetPending(void)
 392:Generated_Source\PSoC5/isr_2.c **** {
 400              		.loc 1 392 0
 401              		.cfi_startproc
 402              		@ args = 0, pretend = 0, frame = 0
 403              		@ frame_needed = 0, uses_anonymous_args = 0
 404              		@ link register save eliminated.
 393:Generated_Source\PSoC5/isr_2.c ****     *isr_2_INTC_SET_PD = isr_2__INTC_MASK;
 405              		.loc 1 393 0
 406 0000 0222     		movs	r2, #2
 407 0002 014B     		ldr	r3, .L41
 408 0004 1A60     		str	r2, [r3]
 409 0006 7047     		bx	lr
 410              	.L42:
 411              		.align	2
 412              	.L41:
 413 0008 00E200E0 		.word	-536813056
 414              		.cfi_endproc
 415              	.LFE75:
 416              		.size	isr_2_SetPending, .-isr_2_SetPending
 417              		.section	.text.isr_2_ClearPending,"ax",%progbits
 418              		.align	2
 419              		.global	isr_2_ClearPending
 420              		.thumb
 421              		.thumb_func
 422              		.type	isr_2_ClearPending, %function
 423              	isr_2_ClearPending:
 424              	.LFB76:
 394:Generated_Source\PSoC5/isr_2.c **** }
 395:Generated_Source\PSoC5/isr_2.c **** 
 396:Generated_Source\PSoC5/isr_2.c **** 
 397:Generated_Source\PSoC5/isr_2.c **** /*******************************************************************************
 398:Generated_Source\PSoC5/isr_2.c **** * Function Name: isr_2_ClearPending
 399:Generated_Source\PSoC5/isr_2.c **** ********************************************************************************
 400:Generated_Source\PSoC5/isr_2.c **** *
 401:Generated_Source\PSoC5/isr_2.c **** * Summary:
 402:Generated_Source\PSoC5/isr_2.c **** *   Clears a pending interrupt in the interrupt controller.
 403:Generated_Source\PSoC5/isr_2.c **** *
 404:Generated_Source\PSoC5/isr_2.c **** *   Note Some interrupt sources are clear-on-read and require the block 
 405:Generated_Source\PSoC5/isr_2.c **** *   interrupt/status register to be read/cleared with the appropriate block API 
ARM GAS  C:\Users\tmj32\AppData\Local\Temp\ccUJSuOK.s 			page 16


 406:Generated_Source\PSoC5/isr_2.c **** *   (GPIO, UART, and so on). Otherwise the ISR will continue to remain in 
 407:Generated_Source\PSoC5/isr_2.c **** *   pending state even though the interrupt itself is cleared using this API.
 408:Generated_Source\PSoC5/isr_2.c **** *
 409:Generated_Source\PSoC5/isr_2.c **** * Parameters:
 410:Generated_Source\PSoC5/isr_2.c **** *   None
 411:Generated_Source\PSoC5/isr_2.c **** *
 412:Generated_Source\PSoC5/isr_2.c **** * Return:
 413:Generated_Source\PSoC5/isr_2.c **** *   None
 414:Generated_Source\PSoC5/isr_2.c **** *
 415:Generated_Source\PSoC5/isr_2.c **** *******************************************************************************/
 416:Generated_Source\PSoC5/isr_2.c **** void isr_2_ClearPending(void)
 417:Generated_Source\PSoC5/isr_2.c **** {
 425              		.loc 1 417 0
 426              		.cfi_startproc
 427              		@ args = 0, pretend = 0, frame = 0
 428              		@ frame_needed = 0, uses_anonymous_args = 0
 429              		@ link register save eliminated.
 418:Generated_Source\PSoC5/isr_2.c ****     *isr_2_INTC_CLR_PD = isr_2__INTC_MASK;
 430              		.loc 1 418 0
 431 0000 0222     		movs	r2, #2
 432 0002 014B     		ldr	r3, .L44
 433 0004 1A60     		str	r2, [r3]
 434 0006 7047     		bx	lr
 435              	.L45:
 436              		.align	2
 437              	.L44:
 438 0008 80E200E0 		.word	-536812928
 439              		.cfi_endproc
 440              	.LFE76:
 441              		.size	isr_2_ClearPending, .-isr_2_ClearPending
 442              		.section	.rodata.str1.4,"aMS",%progbits,1
 443              		.align	2
 444              	.LC0:
 445 0000 256400   		.ascii	"%d\000"
 446              		.text
 447              	.Letext0:
 448              		.file 2 "c:\\program files (x86)\\cypress\\psoc creator\\4.2\\psoc creator\\import\\gnu\\arm\\5.4.
 449              		.file 3 "c:\\program files (x86)\\cypress\\psoc creator\\4.2\\psoc creator\\import\\gnu\\arm\\5.4.
 450              		.file 4 "Generated_Source\\PSoC5/cytypes.h"
 451              		.file 5 "Generated_Source\\PSoC5\\PWM_1.h"
 452              		.file 6 "Generated_Source\\PSoC5\\LCD.h"
 453              		.file 7 "c:\\program files (x86)\\cypress\\psoc creator\\4.2\\psoc creator\\import\\gnu\\arm\\5.4.
 454              		.file 8 "Generated_Source\\PSoC5/CyLib.h"
 455              		.file 9 "Generated_Source\\PSoC5/core_cm3.h"