ARM GAS  C:\Users\tmj32\AppData\Local\Temp\ccywTeQa.s 			page 1


   1              		.syntax unified
   2              		.cpu cortex-m3
   3              		.fpu softvfp
   4              		.eabi_attribute 20, 1
   5              		.eabi_attribute 21, 1
   6              		.eabi_attribute 23, 3
   7              		.eabi_attribute 24, 1
   8              		.eabi_attribute 25, 1
   9              		.eabi_attribute 26, 1
  10              		.eabi_attribute 30, 1
  11              		.eabi_attribute 34, 1
  12              		.eabi_attribute 18, 4
  13              		.thumb
  14              		.syntax unified
  15              		.file	"isr_4.c"
  16              		.text
  17              	.Ltext0:
  18              		.cfi_sections	.debug_frame
  19              		.section	.text.isr_4_Interrupt,"ax",%progbits
  20              		.align	2
  21              		.global	isr_4_Interrupt
  22              		.thumb
  23              		.thumb_func
  24              		.type	isr_4_Interrupt, %function
  25              	isr_4_Interrupt:
  26              	.LFB67:
  27              		.file 1 "Generated_Source\\PSoC5\\isr_4.c"
   1:Generated_Source\PSoC5/isr_4.c **** /*******************************************************************************
   2:Generated_Source\PSoC5/isr_4.c **** * File Name: isr_4.c  
   3:Generated_Source\PSoC5/isr_4.c **** * Version 1.70
   4:Generated_Source\PSoC5/isr_4.c **** *
   5:Generated_Source\PSoC5/isr_4.c **** *  Description:
   6:Generated_Source\PSoC5/isr_4.c **** *   API for controlling the state of an interrupt.
   7:Generated_Source\PSoC5/isr_4.c **** *
   8:Generated_Source\PSoC5/isr_4.c **** *
   9:Generated_Source\PSoC5/isr_4.c **** *  Note:
  10:Generated_Source\PSoC5/isr_4.c **** *
  11:Generated_Source\PSoC5/isr_4.c **** ********************************************************************************
  12:Generated_Source\PSoC5/isr_4.c **** * Copyright 2008-2015, Cypress Semiconductor Corporation.  All rights reserved.
  13:Generated_Source\PSoC5/isr_4.c **** * You may use this file only in accordance with the license, terms, conditions, 
  14:Generated_Source\PSoC5/isr_4.c **** * disclaimers, and limitations in the end user license agreement accompanying 
  15:Generated_Source\PSoC5/isr_4.c **** * the software package with which this file was provided.
  16:Generated_Source\PSoC5/isr_4.c **** *******************************************************************************/
  17:Generated_Source\PSoC5/isr_4.c **** 
  18:Generated_Source\PSoC5/isr_4.c **** 
  19:Generated_Source\PSoC5/isr_4.c **** #include <cydevice_trm.h>
  20:Generated_Source\PSoC5/isr_4.c **** #include <CyLib.h>
  21:Generated_Source\PSoC5/isr_4.c **** #include <isr_4.h>
  22:Generated_Source\PSoC5/isr_4.c **** #include "cyapicallbacks.h"
  23:Generated_Source\PSoC5/isr_4.c **** 
  24:Generated_Source\PSoC5/isr_4.c **** #if !defined(isr_4__REMOVED) /* Check for removal by optimization */
  25:Generated_Source\PSoC5/isr_4.c **** 
  26:Generated_Source\PSoC5/isr_4.c **** /*******************************************************************************
  27:Generated_Source\PSoC5/isr_4.c **** *  Place your includes, defines and code here 
  28:Generated_Source\PSoC5/isr_4.c **** ********************************************************************************/
  29:Generated_Source\PSoC5/isr_4.c **** /* `#START isr_4_intc` */
  30:Generated_Source\PSoC5/isr_4.c **** #include "project.h"
ARM GAS  C:\Users\tmj32\AppData\Local\Temp\ccywTeQa.s 			page 2


  31:Generated_Source\PSoC5/isr_4.c **** #include "stdio.h"
  32:Generated_Source\PSoC5/isr_4.c **** /* `#END` */
  33:Generated_Source\PSoC5/isr_4.c **** 
  34:Generated_Source\PSoC5/isr_4.c **** #ifndef CYINT_IRQ_BASE
  35:Generated_Source\PSoC5/isr_4.c **** #define CYINT_IRQ_BASE      16
  36:Generated_Source\PSoC5/isr_4.c **** #endif /* CYINT_IRQ_BASE */
  37:Generated_Source\PSoC5/isr_4.c **** #ifndef CYINT_VECT_TABLE
  38:Generated_Source\PSoC5/isr_4.c **** #define CYINT_VECT_TABLE    ((cyisraddress **) CYREG_NVIC_VECT_OFFSET)
  39:Generated_Source\PSoC5/isr_4.c **** #endif /* CYINT_VECT_TABLE */
  40:Generated_Source\PSoC5/isr_4.c **** 
  41:Generated_Source\PSoC5/isr_4.c **** /* Declared in startup, used to set unused interrupts to. */
  42:Generated_Source\PSoC5/isr_4.c **** CY_ISR_PROTO(IntDefaultHandler);
  43:Generated_Source\PSoC5/isr_4.c **** 
  44:Generated_Source\PSoC5/isr_4.c **** 
  45:Generated_Source\PSoC5/isr_4.c **** /*******************************************************************************
  46:Generated_Source\PSoC5/isr_4.c **** * Function Name: isr_4_Start
  47:Generated_Source\PSoC5/isr_4.c **** ********************************************************************************
  48:Generated_Source\PSoC5/isr_4.c **** *
  49:Generated_Source\PSoC5/isr_4.c **** * Summary:
  50:Generated_Source\PSoC5/isr_4.c **** *  Set up the interrupt and enable it. This function disables the interrupt, 
  51:Generated_Source\PSoC5/isr_4.c **** *  sets the default interrupt vector, sets the priority from the value in the
  52:Generated_Source\PSoC5/isr_4.c **** *  Design Wide Resources Interrupt Editor, then enables the interrupt to the 
  53:Generated_Source\PSoC5/isr_4.c **** *  interrupt controller.
  54:Generated_Source\PSoC5/isr_4.c **** *
  55:Generated_Source\PSoC5/isr_4.c **** * Parameters:  
  56:Generated_Source\PSoC5/isr_4.c **** *   None
  57:Generated_Source\PSoC5/isr_4.c **** *
  58:Generated_Source\PSoC5/isr_4.c **** * Return:
  59:Generated_Source\PSoC5/isr_4.c **** *   None
  60:Generated_Source\PSoC5/isr_4.c **** *
  61:Generated_Source\PSoC5/isr_4.c **** *******************************************************************************/
  62:Generated_Source\PSoC5/isr_4.c **** void isr_4_Start(void)
  63:Generated_Source\PSoC5/isr_4.c **** {
  64:Generated_Source\PSoC5/isr_4.c ****     /* For all we know the interrupt is active. */
  65:Generated_Source\PSoC5/isr_4.c ****     isr_4_Disable();
  66:Generated_Source\PSoC5/isr_4.c **** 
  67:Generated_Source\PSoC5/isr_4.c ****     /* Set the ISR to point to the isr_4 Interrupt. */
  68:Generated_Source\PSoC5/isr_4.c ****     isr_4_SetVector(&isr_4_Interrupt);
  69:Generated_Source\PSoC5/isr_4.c **** 
  70:Generated_Source\PSoC5/isr_4.c ****     /* Set the priority. */
  71:Generated_Source\PSoC5/isr_4.c ****     isr_4_SetPriority((uint8)isr_4_INTC_PRIOR_NUMBER);
  72:Generated_Source\PSoC5/isr_4.c **** 
  73:Generated_Source\PSoC5/isr_4.c ****     /* Enable it. */
  74:Generated_Source\PSoC5/isr_4.c ****     isr_4_Enable();
  75:Generated_Source\PSoC5/isr_4.c **** }
  76:Generated_Source\PSoC5/isr_4.c **** 
  77:Generated_Source\PSoC5/isr_4.c **** 
  78:Generated_Source\PSoC5/isr_4.c **** /*******************************************************************************
  79:Generated_Source\PSoC5/isr_4.c **** * Function Name: isr_4_StartEx
  80:Generated_Source\PSoC5/isr_4.c **** ********************************************************************************
  81:Generated_Source\PSoC5/isr_4.c **** *
  82:Generated_Source\PSoC5/isr_4.c **** * Summary:
  83:Generated_Source\PSoC5/isr_4.c **** *  Sets up the interrupt and enables it. This function disables the interrupt,
  84:Generated_Source\PSoC5/isr_4.c **** *  sets the interrupt vector based on the address passed in, sets the priority 
  85:Generated_Source\PSoC5/isr_4.c **** *  from the value in the Design Wide Resources Interrupt Editor, then enables 
  86:Generated_Source\PSoC5/isr_4.c **** *  the interrupt to the interrupt controller.
  87:Generated_Source\PSoC5/isr_4.c **** *  
ARM GAS  C:\Users\tmj32\AppData\Local\Temp\ccywTeQa.s 			page 3


  88:Generated_Source\PSoC5/isr_4.c **** *  When defining ISR functions, the CY_ISR and CY_ISR_PROTO macros should be 
  89:Generated_Source\PSoC5/isr_4.c **** *  used to provide consistent definition across compilers:
  90:Generated_Source\PSoC5/isr_4.c **** *  
  91:Generated_Source\PSoC5/isr_4.c **** *  Function definition example:
  92:Generated_Source\PSoC5/isr_4.c **** *   CY_ISR(MyISR)
  93:Generated_Source\PSoC5/isr_4.c **** *   {
  94:Generated_Source\PSoC5/isr_4.c **** *   }
  95:Generated_Source\PSoC5/isr_4.c **** *   Function prototype example:
  96:Generated_Source\PSoC5/isr_4.c **** *   CY_ISR_PROTO(MyISR);
  97:Generated_Source\PSoC5/isr_4.c **** *
  98:Generated_Source\PSoC5/isr_4.c **** * Parameters:  
  99:Generated_Source\PSoC5/isr_4.c **** *   address: Address of the ISR to set in the interrupt vector table.
 100:Generated_Source\PSoC5/isr_4.c **** *
 101:Generated_Source\PSoC5/isr_4.c **** * Return:
 102:Generated_Source\PSoC5/isr_4.c **** *   None
 103:Generated_Source\PSoC5/isr_4.c **** *
 104:Generated_Source\PSoC5/isr_4.c **** *******************************************************************************/
 105:Generated_Source\PSoC5/isr_4.c **** void isr_4_StartEx(cyisraddress address)
 106:Generated_Source\PSoC5/isr_4.c **** {
 107:Generated_Source\PSoC5/isr_4.c ****     /* For all we know the interrupt is active. */
 108:Generated_Source\PSoC5/isr_4.c ****     isr_4_Disable();
 109:Generated_Source\PSoC5/isr_4.c **** 
 110:Generated_Source\PSoC5/isr_4.c ****     /* Set the ISR to point to the isr_4 Interrupt. */
 111:Generated_Source\PSoC5/isr_4.c ****     isr_4_SetVector(address);
 112:Generated_Source\PSoC5/isr_4.c **** 
 113:Generated_Source\PSoC5/isr_4.c ****     /* Set the priority. */
 114:Generated_Source\PSoC5/isr_4.c ****     isr_4_SetPriority((uint8)isr_4_INTC_PRIOR_NUMBER);
 115:Generated_Source\PSoC5/isr_4.c **** 
 116:Generated_Source\PSoC5/isr_4.c ****     /* Enable it. */
 117:Generated_Source\PSoC5/isr_4.c ****     isr_4_Enable();
 118:Generated_Source\PSoC5/isr_4.c **** }
 119:Generated_Source\PSoC5/isr_4.c **** 
 120:Generated_Source\PSoC5/isr_4.c **** 
 121:Generated_Source\PSoC5/isr_4.c **** /*******************************************************************************
 122:Generated_Source\PSoC5/isr_4.c **** * Function Name: isr_4_Stop
 123:Generated_Source\PSoC5/isr_4.c **** ********************************************************************************
 124:Generated_Source\PSoC5/isr_4.c **** *
 125:Generated_Source\PSoC5/isr_4.c **** * Summary:
 126:Generated_Source\PSoC5/isr_4.c **** *   Disables and removes the interrupt.
 127:Generated_Source\PSoC5/isr_4.c **** *
 128:Generated_Source\PSoC5/isr_4.c **** * Parameters:  
 129:Generated_Source\PSoC5/isr_4.c **** *   None
 130:Generated_Source\PSoC5/isr_4.c **** *
 131:Generated_Source\PSoC5/isr_4.c **** * Return:
 132:Generated_Source\PSoC5/isr_4.c **** *   None
 133:Generated_Source\PSoC5/isr_4.c **** *
 134:Generated_Source\PSoC5/isr_4.c **** *******************************************************************************/
 135:Generated_Source\PSoC5/isr_4.c **** void isr_4_Stop(void)
 136:Generated_Source\PSoC5/isr_4.c **** {
 137:Generated_Source\PSoC5/isr_4.c ****     /* Disable this interrupt. */
 138:Generated_Source\PSoC5/isr_4.c ****     isr_4_Disable();
 139:Generated_Source\PSoC5/isr_4.c **** 
 140:Generated_Source\PSoC5/isr_4.c ****     /* Set the ISR to point to the passive one. */
 141:Generated_Source\PSoC5/isr_4.c ****     isr_4_SetVector(&IntDefaultHandler);
 142:Generated_Source\PSoC5/isr_4.c **** }
 143:Generated_Source\PSoC5/isr_4.c **** 
 144:Generated_Source\PSoC5/isr_4.c **** 
ARM GAS  C:\Users\tmj32\AppData\Local\Temp\ccywTeQa.s 			page 4


 145:Generated_Source\PSoC5/isr_4.c **** /*******************************************************************************
 146:Generated_Source\PSoC5/isr_4.c **** * Function Name: isr_4_Interrupt
 147:Generated_Source\PSoC5/isr_4.c **** ********************************************************************************
 148:Generated_Source\PSoC5/isr_4.c **** *
 149:Generated_Source\PSoC5/isr_4.c **** * Summary:
 150:Generated_Source\PSoC5/isr_4.c **** *   The default Interrupt Service Routine for isr_4.
 151:Generated_Source\PSoC5/isr_4.c **** *
 152:Generated_Source\PSoC5/isr_4.c **** *   Add custom code between the coments to keep the next version of this file
 153:Generated_Source\PSoC5/isr_4.c **** *   from over writting your code.
 154:Generated_Source\PSoC5/isr_4.c **** *
 155:Generated_Source\PSoC5/isr_4.c **** * Parameters:  
 156:Generated_Source\PSoC5/isr_4.c **** *
 157:Generated_Source\PSoC5/isr_4.c **** * Return:
 158:Generated_Source\PSoC5/isr_4.c **** *   None
 159:Generated_Source\PSoC5/isr_4.c **** *
 160:Generated_Source\PSoC5/isr_4.c **** *******************************************************************************/
 161:Generated_Source\PSoC5/isr_4.c **** CY_ISR(isr_4_Interrupt)
 162:Generated_Source\PSoC5/isr_4.c **** {
  28              		.loc 1 162 0
  29              		.cfi_startproc
  30              		@ args = 0, pretend = 0, frame = 0
  31              		@ frame_needed = 0, uses_anonymous_args = 0
  32 0000 08B5     		push	{r3, lr}
  33              		.cfi_def_cfa_offset 8
  34              		.cfi_offset 3, -8
  35              		.cfi_offset 14, -4
 163:Generated_Source\PSoC5/isr_4.c ****     #ifdef isr_4_INTERRUPT_INTERRUPT_CALLBACK
 164:Generated_Source\PSoC5/isr_4.c ****         isr_4_Interrupt_InterruptCallback();
 165:Generated_Source\PSoC5/isr_4.c ****     #endif /* isr_4_INTERRUPT_INTERRUPT_CALLBACK */ 
 166:Generated_Source\PSoC5/isr_4.c **** 
 167:Generated_Source\PSoC5/isr_4.c ****     /*  Place your Interrupt code here. */
 168:Generated_Source\PSoC5/isr_4.c ****     /* `#START isr_4_Interrupt` */
 169:Generated_Source\PSoC5/isr_4.c ****     isr_3_Start();
  36              		.loc 1 169 0
  37 0002 FFF7FEFF 		bl	isr_3_Start
  38              	.LVL0:
  39 0006 08BD     		pop	{r3, pc}
  40              		.cfi_endproc
  41              	.LFE67:
  42              		.size	isr_4_Interrupt, .-isr_4_Interrupt
  43              		.section	.text.isr_4_SetVector,"ax",%progbits
  44              		.align	2
  45              		.global	isr_4_SetVector
  46              		.thumb
  47              		.thumb_func
  48              		.type	isr_4_SetVector, %function
  49              	isr_4_SetVector:
  50              	.LFB68:
 170:Generated_Source\PSoC5/isr_4.c ****     /* `#END` */
 171:Generated_Source\PSoC5/isr_4.c **** }
 172:Generated_Source\PSoC5/isr_4.c **** 
 173:Generated_Source\PSoC5/isr_4.c **** 
 174:Generated_Source\PSoC5/isr_4.c **** /*******************************************************************************
 175:Generated_Source\PSoC5/isr_4.c **** * Function Name: isr_4_SetVector
 176:Generated_Source\PSoC5/isr_4.c **** ********************************************************************************
 177:Generated_Source\PSoC5/isr_4.c **** *
 178:Generated_Source\PSoC5/isr_4.c **** * Summary:
ARM GAS  C:\Users\tmj32\AppData\Local\Temp\ccywTeQa.s 			page 5


 179:Generated_Source\PSoC5/isr_4.c **** *   Change the ISR vector for the Interrupt. Note calling isr_4_Start
 180:Generated_Source\PSoC5/isr_4.c **** *   will override any effect this method would have had. To set the vector 
 181:Generated_Source\PSoC5/isr_4.c **** *   before the component has been started use isr_4_StartEx instead.
 182:Generated_Source\PSoC5/isr_4.c **** * 
 183:Generated_Source\PSoC5/isr_4.c **** *   When defining ISR functions, the CY_ISR and CY_ISR_PROTO macros should be 
 184:Generated_Source\PSoC5/isr_4.c **** *   used to provide consistent definition across compilers:
 185:Generated_Source\PSoC5/isr_4.c **** *
 186:Generated_Source\PSoC5/isr_4.c **** *   Function definition example:
 187:Generated_Source\PSoC5/isr_4.c **** *   CY_ISR(MyISR)
 188:Generated_Source\PSoC5/isr_4.c **** *   {
 189:Generated_Source\PSoC5/isr_4.c **** *   }
 190:Generated_Source\PSoC5/isr_4.c **** *
 191:Generated_Source\PSoC5/isr_4.c **** *   Function prototype example:
 192:Generated_Source\PSoC5/isr_4.c **** *     CY_ISR_PROTO(MyISR);
 193:Generated_Source\PSoC5/isr_4.c **** *
 194:Generated_Source\PSoC5/isr_4.c **** * Parameters:
 195:Generated_Source\PSoC5/isr_4.c **** *   address: Address of the ISR to set in the interrupt vector table.
 196:Generated_Source\PSoC5/isr_4.c **** *
 197:Generated_Source\PSoC5/isr_4.c **** * Return:
 198:Generated_Source\PSoC5/isr_4.c **** *   None
 199:Generated_Source\PSoC5/isr_4.c **** *
 200:Generated_Source\PSoC5/isr_4.c **** *******************************************************************************/
 201:Generated_Source\PSoC5/isr_4.c **** void isr_4_SetVector(cyisraddress address)
 202:Generated_Source\PSoC5/isr_4.c **** {
  51              		.loc 1 202 0
  52              		.cfi_startproc
  53              		@ args = 0, pretend = 0, frame = 0
  54              		@ frame_needed = 0, uses_anonymous_args = 0
  55              		@ link register save eliminated.
  56              	.LVL1:
 203:Generated_Source\PSoC5/isr_4.c ****     cyisraddress * ramVectorTable;
 204:Generated_Source\PSoC5/isr_4.c **** 
 205:Generated_Source\PSoC5/isr_4.c ****     ramVectorTable = (cyisraddress *) *CYINT_VECT_TABLE;
  57              		.loc 1 205 0
  58 0000 014B     		ldr	r3, .L4
  59 0002 1B68     		ldr	r3, [r3]
  60              	.LVL2:
 206:Generated_Source\PSoC5/isr_4.c **** 
 207:Generated_Source\PSoC5/isr_4.c ****     ramVectorTable[CYINT_IRQ_BASE + (uint32)isr_4__INTC_NUMBER] = address;
  61              		.loc 1 207 0
  62 0004 D864     		str	r0, [r3, #76]
  63 0006 7047     		bx	lr
  64              	.L5:
  65              		.align	2
  66              	.L4:
  67 0008 08ED00E0 		.word	-536810232
  68              		.cfi_endproc
  69              	.LFE68:
  70              		.size	isr_4_SetVector, .-isr_4_SetVector
  71              		.section	.text.isr_4_GetVector,"ax",%progbits
  72              		.align	2
  73              		.global	isr_4_GetVector
  74              		.thumb
  75              		.thumb_func
  76              		.type	isr_4_GetVector, %function
  77              	isr_4_GetVector:
  78              	.LFB69:
ARM GAS  C:\Users\tmj32\AppData\Local\Temp\ccywTeQa.s 			page 6


 208:Generated_Source\PSoC5/isr_4.c **** }
 209:Generated_Source\PSoC5/isr_4.c **** 
 210:Generated_Source\PSoC5/isr_4.c **** 
 211:Generated_Source\PSoC5/isr_4.c **** /*******************************************************************************
 212:Generated_Source\PSoC5/isr_4.c **** * Function Name: isr_4_GetVector
 213:Generated_Source\PSoC5/isr_4.c **** ********************************************************************************
 214:Generated_Source\PSoC5/isr_4.c **** *
 215:Generated_Source\PSoC5/isr_4.c **** * Summary:
 216:Generated_Source\PSoC5/isr_4.c **** *   Gets the "address" of the current ISR vector for the Interrupt.
 217:Generated_Source\PSoC5/isr_4.c **** *
 218:Generated_Source\PSoC5/isr_4.c **** * Parameters:
 219:Generated_Source\PSoC5/isr_4.c **** *   None
 220:Generated_Source\PSoC5/isr_4.c **** *
 221:Generated_Source\PSoC5/isr_4.c **** * Return:
 222:Generated_Source\PSoC5/isr_4.c **** *   Address of the ISR in the interrupt vector table.
 223:Generated_Source\PSoC5/isr_4.c **** *
 224:Generated_Source\PSoC5/isr_4.c **** *******************************************************************************/
 225:Generated_Source\PSoC5/isr_4.c **** cyisraddress isr_4_GetVector(void)
 226:Generated_Source\PSoC5/isr_4.c **** {
  79              		.loc 1 226 0
  80              		.cfi_startproc
  81              		@ args = 0, pretend = 0, frame = 0
  82              		@ frame_needed = 0, uses_anonymous_args = 0
  83              		@ link register save eliminated.
 227:Generated_Source\PSoC5/isr_4.c ****     cyisraddress * ramVectorTable;
 228:Generated_Source\PSoC5/isr_4.c **** 
 229:Generated_Source\PSoC5/isr_4.c ****     ramVectorTable = (cyisraddress *) *CYINT_VECT_TABLE;
  84              		.loc 1 229 0
  85 0000 014B     		ldr	r3, .L7
  86 0002 1B68     		ldr	r3, [r3]
  87              	.LVL3:
 230:Generated_Source\PSoC5/isr_4.c **** 
 231:Generated_Source\PSoC5/isr_4.c ****     return ramVectorTable[CYINT_IRQ_BASE + (uint32)isr_4__INTC_NUMBER];
 232:Generated_Source\PSoC5/isr_4.c **** }
  88              		.loc 1 232 0
  89 0004 D86C     		ldr	r0, [r3, #76]
  90 0006 7047     		bx	lr
  91              	.L8:
  92              		.align	2
  93              	.L7:
  94 0008 08ED00E0 		.word	-536810232
  95              		.cfi_endproc
  96              	.LFE69:
  97              		.size	isr_4_GetVector, .-isr_4_GetVector
  98              		.section	.text.isr_4_SetPriority,"ax",%progbits
  99              		.align	2
 100              		.global	isr_4_SetPriority
 101              		.thumb
 102              		.thumb_func
 103              		.type	isr_4_SetPriority, %function
 104              	isr_4_SetPriority:
 105              	.LFB70:
 233:Generated_Source\PSoC5/isr_4.c **** 
 234:Generated_Source\PSoC5/isr_4.c **** 
 235:Generated_Source\PSoC5/isr_4.c **** /*******************************************************************************
 236:Generated_Source\PSoC5/isr_4.c **** * Function Name: isr_4_SetPriority
 237:Generated_Source\PSoC5/isr_4.c **** ********************************************************************************
ARM GAS  C:\Users\tmj32\AppData\Local\Temp\ccywTeQa.s 			page 7


 238:Generated_Source\PSoC5/isr_4.c **** *
 239:Generated_Source\PSoC5/isr_4.c **** * Summary:
 240:Generated_Source\PSoC5/isr_4.c **** *   Sets the Priority of the Interrupt. 
 241:Generated_Source\PSoC5/isr_4.c **** *
 242:Generated_Source\PSoC5/isr_4.c **** *   Note calling isr_4_Start or isr_4_StartEx will 
 243:Generated_Source\PSoC5/isr_4.c **** *   override any effect this API would have had. This API should only be called
 244:Generated_Source\PSoC5/isr_4.c **** *   after isr_4_Start or isr_4_StartEx has been called. 
 245:Generated_Source\PSoC5/isr_4.c **** *   To set the initial priority for the component, use the Design-Wide Resources
 246:Generated_Source\PSoC5/isr_4.c **** *   Interrupt Editor.
 247:Generated_Source\PSoC5/isr_4.c **** *
 248:Generated_Source\PSoC5/isr_4.c **** *   Note This API has no effect on Non-maskable interrupt NMI).
 249:Generated_Source\PSoC5/isr_4.c **** *
 250:Generated_Source\PSoC5/isr_4.c **** * Parameters:
 251:Generated_Source\PSoC5/isr_4.c **** *   priority: Priority of the interrupt, 0 being the highest priority
 252:Generated_Source\PSoC5/isr_4.c **** *             PSoC 3 and PSoC 5LP: Priority is from 0 to 7.
 253:Generated_Source\PSoC5/isr_4.c **** *             PSoC 4: Priority is from 0 to 3.
 254:Generated_Source\PSoC5/isr_4.c **** *
 255:Generated_Source\PSoC5/isr_4.c **** * Return:
 256:Generated_Source\PSoC5/isr_4.c **** *   None
 257:Generated_Source\PSoC5/isr_4.c **** *
 258:Generated_Source\PSoC5/isr_4.c **** *******************************************************************************/
 259:Generated_Source\PSoC5/isr_4.c **** void isr_4_SetPriority(uint8 priority)
 260:Generated_Source\PSoC5/isr_4.c **** {
 106              		.loc 1 260 0
 107              		.cfi_startproc
 108              		@ args = 0, pretend = 0, frame = 0
 109              		@ frame_needed = 0, uses_anonymous_args = 0
 110              		@ link register save eliminated.
 111              	.LVL4:
 261:Generated_Source\PSoC5/isr_4.c ****     *isr_4_INTC_PRIOR = priority << 5;
 112              		.loc 1 261 0
 113 0000 4001     		lsls	r0, r0, #5
 114              	.LVL5:
 115 0002 C0B2     		uxtb	r0, r0
 116 0004 014B     		ldr	r3, .L10
 117 0006 1870     		strb	r0, [r3]
 118 0008 7047     		bx	lr
 119              	.L11:
 120 000a 00BF     		.align	2
 121              	.L10:
 122 000c 03E400E0 		.word	-536812541
 123              		.cfi_endproc
 124              	.LFE70:
 125              		.size	isr_4_SetPriority, .-isr_4_SetPriority
 126              		.section	.text.isr_4_GetPriority,"ax",%progbits
 127              		.align	2
 128              		.global	isr_4_GetPriority
 129              		.thumb
 130              		.thumb_func
 131              		.type	isr_4_GetPriority, %function
 132              	isr_4_GetPriority:
 133              	.LFB71:
 262:Generated_Source\PSoC5/isr_4.c **** }
 263:Generated_Source\PSoC5/isr_4.c **** 
 264:Generated_Source\PSoC5/isr_4.c **** 
 265:Generated_Source\PSoC5/isr_4.c **** /*******************************************************************************
 266:Generated_Source\PSoC5/isr_4.c **** * Function Name: isr_4_GetPriority
ARM GAS  C:\Users\tmj32\AppData\Local\Temp\ccywTeQa.s 			page 8


 267:Generated_Source\PSoC5/isr_4.c **** ********************************************************************************
 268:Generated_Source\PSoC5/isr_4.c **** *
 269:Generated_Source\PSoC5/isr_4.c **** * Summary:
 270:Generated_Source\PSoC5/isr_4.c **** *   Gets the Priority of the Interrupt.
 271:Generated_Source\PSoC5/isr_4.c **** *
 272:Generated_Source\PSoC5/isr_4.c **** * Parameters:
 273:Generated_Source\PSoC5/isr_4.c **** *   None
 274:Generated_Source\PSoC5/isr_4.c **** *
 275:Generated_Source\PSoC5/isr_4.c **** * Return:
 276:Generated_Source\PSoC5/isr_4.c **** *   Priority of the interrupt, 0 being the highest priority
 277:Generated_Source\PSoC5/isr_4.c **** *    PSoC 3 and PSoC 5LP: Priority is from 0 to 7.
 278:Generated_Source\PSoC5/isr_4.c **** *    PSoC 4: Priority is from 0 to 3.
 279:Generated_Source\PSoC5/isr_4.c **** *
 280:Generated_Source\PSoC5/isr_4.c **** *******************************************************************************/
 281:Generated_Source\PSoC5/isr_4.c **** uint8 isr_4_GetPriority(void)
 282:Generated_Source\PSoC5/isr_4.c **** {
 134              		.loc 1 282 0
 135              		.cfi_startproc
 136              		@ args = 0, pretend = 0, frame = 0
 137              		@ frame_needed = 0, uses_anonymous_args = 0
 138              		@ link register save eliminated.
 283:Generated_Source\PSoC5/isr_4.c ****     uint8 priority;
 284:Generated_Source\PSoC5/isr_4.c **** 
 285:Generated_Source\PSoC5/isr_4.c **** 
 286:Generated_Source\PSoC5/isr_4.c ****     priority = *isr_4_INTC_PRIOR >> 5;
 139              		.loc 1 286 0
 140 0000 014B     		ldr	r3, .L13
 141 0002 1878     		ldrb	r0, [r3]	@ zero_extendqisi2
 142              	.LVL6:
 287:Generated_Source\PSoC5/isr_4.c **** 
 288:Generated_Source\PSoC5/isr_4.c ****     return priority;
 289:Generated_Source\PSoC5/isr_4.c **** }
 143              		.loc 1 289 0
 144 0004 4009     		lsrs	r0, r0, #5
 145              	.LVL7:
 146 0006 7047     		bx	lr
 147              	.L14:
 148              		.align	2
 149              	.L13:
 150 0008 03E400E0 		.word	-536812541
 151              		.cfi_endproc
 152              	.LFE71:
 153              		.size	isr_4_GetPriority, .-isr_4_GetPriority
 154              		.section	.text.isr_4_Enable,"ax",%progbits
 155              		.align	2
 156              		.global	isr_4_Enable
 157              		.thumb
 158              		.thumb_func
 159              		.type	isr_4_Enable, %function
 160              	isr_4_Enable:
 161              	.LFB72:
 290:Generated_Source\PSoC5/isr_4.c **** 
 291:Generated_Source\PSoC5/isr_4.c **** 
 292:Generated_Source\PSoC5/isr_4.c **** /*******************************************************************************
 293:Generated_Source\PSoC5/isr_4.c **** * Function Name: isr_4_Enable
 294:Generated_Source\PSoC5/isr_4.c **** ********************************************************************************
 295:Generated_Source\PSoC5/isr_4.c **** *
ARM GAS  C:\Users\tmj32\AppData\Local\Temp\ccywTeQa.s 			page 9


 296:Generated_Source\PSoC5/isr_4.c **** * Summary:
 297:Generated_Source\PSoC5/isr_4.c **** *   Enables the interrupt to the interrupt controller. Do not call this function
 298:Generated_Source\PSoC5/isr_4.c **** *   unless ISR_Start() has been called or the functionality of the ISR_Start() 
 299:Generated_Source\PSoC5/isr_4.c **** *   function, which sets the vector and the priority, has been called.
 300:Generated_Source\PSoC5/isr_4.c **** *
 301:Generated_Source\PSoC5/isr_4.c **** * Parameters:
 302:Generated_Source\PSoC5/isr_4.c **** *   None
 303:Generated_Source\PSoC5/isr_4.c **** *
 304:Generated_Source\PSoC5/isr_4.c **** * Return:
 305:Generated_Source\PSoC5/isr_4.c **** *   None
 306:Generated_Source\PSoC5/isr_4.c **** *
 307:Generated_Source\PSoC5/isr_4.c **** *******************************************************************************/
 308:Generated_Source\PSoC5/isr_4.c **** void isr_4_Enable(void)
 309:Generated_Source\PSoC5/isr_4.c **** {
 162              		.loc 1 309 0
 163              		.cfi_startproc
 164              		@ args = 0, pretend = 0, frame = 0
 165              		@ frame_needed = 0, uses_anonymous_args = 0
 166              		@ link register save eliminated.
 310:Generated_Source\PSoC5/isr_4.c ****     /* Enable the general interrupt. */
 311:Generated_Source\PSoC5/isr_4.c ****     *isr_4_INTC_SET_EN = isr_4__INTC_MASK;
 167              		.loc 1 311 0
 168 0000 0822     		movs	r2, #8
 169 0002 014B     		ldr	r3, .L16
 170 0004 1A60     		str	r2, [r3]
 171 0006 7047     		bx	lr
 172              	.L17:
 173              		.align	2
 174              	.L16:
 175 0008 00E100E0 		.word	-536813312
 176              		.cfi_endproc
 177              	.LFE72:
 178              		.size	isr_4_Enable, .-isr_4_Enable
 179              		.section	.text.isr_4_GetState,"ax",%progbits
 180              		.align	2
 181              		.global	isr_4_GetState
 182              		.thumb
 183              		.thumb_func
 184              		.type	isr_4_GetState, %function
 185              	isr_4_GetState:
 186              	.LFB73:
 312:Generated_Source\PSoC5/isr_4.c **** }
 313:Generated_Source\PSoC5/isr_4.c **** 
 314:Generated_Source\PSoC5/isr_4.c **** 
 315:Generated_Source\PSoC5/isr_4.c **** /*******************************************************************************
 316:Generated_Source\PSoC5/isr_4.c **** * Function Name: isr_4_GetState
 317:Generated_Source\PSoC5/isr_4.c **** ********************************************************************************
 318:Generated_Source\PSoC5/isr_4.c **** *
 319:Generated_Source\PSoC5/isr_4.c **** * Summary:
 320:Generated_Source\PSoC5/isr_4.c **** *   Gets the state (enabled, disabled) of the Interrupt.
 321:Generated_Source\PSoC5/isr_4.c **** *
 322:Generated_Source\PSoC5/isr_4.c **** * Parameters:
 323:Generated_Source\PSoC5/isr_4.c **** *   None
 324:Generated_Source\PSoC5/isr_4.c **** *
 325:Generated_Source\PSoC5/isr_4.c **** * Return:
 326:Generated_Source\PSoC5/isr_4.c **** *   1 if enabled, 0 if disabled.
 327:Generated_Source\PSoC5/isr_4.c **** *
ARM GAS  C:\Users\tmj32\AppData\Local\Temp\ccywTeQa.s 			page 10


 328:Generated_Source\PSoC5/isr_4.c **** *******************************************************************************/
 329:Generated_Source\PSoC5/isr_4.c **** uint8 isr_4_GetState(void)
 330:Generated_Source\PSoC5/isr_4.c **** {
 187              		.loc 1 330 0
 188              		.cfi_startproc
 189              		@ args = 0, pretend = 0, frame = 0
 190              		@ frame_needed = 0, uses_anonymous_args = 0
 191              		@ link register save eliminated.
 331:Generated_Source\PSoC5/isr_4.c ****     /* Get the state of the general interrupt. */
 332:Generated_Source\PSoC5/isr_4.c ****     return ((*isr_4_INTC_SET_EN & (uint32)isr_4__INTC_MASK) != 0u) ? 1u:0u;
 192              		.loc 1 332 0
 193 0000 044B     		ldr	r3, .L21
 194 0002 1B68     		ldr	r3, [r3]
 195 0004 13F0080F 		tst	r3, #8
 196 0008 01D0     		beq	.L20
 197 000a 0120     		movs	r0, #1
 198 000c 7047     		bx	lr
 199              	.L20:
 200 000e 0020     		movs	r0, #0
 333:Generated_Source\PSoC5/isr_4.c **** }
 201              		.loc 1 333 0
 202 0010 7047     		bx	lr
 203              	.L22:
 204 0012 00BF     		.align	2
 205              	.L21:
 206 0014 00E100E0 		.word	-536813312
 207              		.cfi_endproc
 208              	.LFE73:
 209              		.size	isr_4_GetState, .-isr_4_GetState
 210              		.section	.text.isr_4_Disable,"ax",%progbits
 211              		.align	2
 212              		.global	isr_4_Disable
 213              		.thumb
 214              		.thumb_func
 215              		.type	isr_4_Disable, %function
 216              	isr_4_Disable:
 217              	.LFB74:
 334:Generated_Source\PSoC5/isr_4.c **** 
 335:Generated_Source\PSoC5/isr_4.c **** 
 336:Generated_Source\PSoC5/isr_4.c **** /*******************************************************************************
 337:Generated_Source\PSoC5/isr_4.c **** * Function Name: isr_4_Disable
 338:Generated_Source\PSoC5/isr_4.c **** ********************************************************************************
 339:Generated_Source\PSoC5/isr_4.c **** *
 340:Generated_Source\PSoC5/isr_4.c **** * Summary:
 341:Generated_Source\PSoC5/isr_4.c **** *   Disables the Interrupt in the interrupt controller.
 342:Generated_Source\PSoC5/isr_4.c **** *
 343:Generated_Source\PSoC5/isr_4.c **** * Parameters:
 344:Generated_Source\PSoC5/isr_4.c **** *   None
 345:Generated_Source\PSoC5/isr_4.c **** *
 346:Generated_Source\PSoC5/isr_4.c **** * Return:
 347:Generated_Source\PSoC5/isr_4.c **** *   None
 348:Generated_Source\PSoC5/isr_4.c **** *
 349:Generated_Source\PSoC5/isr_4.c **** *******************************************************************************/
 350:Generated_Source\PSoC5/isr_4.c **** void isr_4_Disable(void)
 351:Generated_Source\PSoC5/isr_4.c **** {
 218              		.loc 1 351 0
 219              		.cfi_startproc
ARM GAS  C:\Users\tmj32\AppData\Local\Temp\ccywTeQa.s 			page 11


 220              		@ args = 0, pretend = 0, frame = 0
 221              		@ frame_needed = 0, uses_anonymous_args = 0
 222              		@ link register save eliminated.
 352:Generated_Source\PSoC5/isr_4.c ****     /* Disable the general interrupt. */
 353:Generated_Source\PSoC5/isr_4.c ****     *isr_4_INTC_CLR_EN = isr_4__INTC_MASK;
 223              		.loc 1 353 0
 224 0000 0822     		movs	r2, #8
 225 0002 014B     		ldr	r3, .L24
 226 0004 1A60     		str	r2, [r3]
 227 0006 7047     		bx	lr
 228              	.L25:
 229              		.align	2
 230              	.L24:
 231 0008 80E100E0 		.word	-536813184
 232              		.cfi_endproc
 233              	.LFE74:
 234              		.size	isr_4_Disable, .-isr_4_Disable
 235              		.section	.text.isr_4_Start,"ax",%progbits
 236              		.align	2
 237              		.global	isr_4_Start
 238              		.thumb
 239              		.thumb_func
 240              		.type	isr_4_Start, %function
 241              	isr_4_Start:
 242              	.LFB64:
  63:Generated_Source\PSoC5/isr_4.c ****     /* For all we know the interrupt is active. */
 243              		.loc 1 63 0
 244              		.cfi_startproc
 245              		@ args = 0, pretend = 0, frame = 0
 246              		@ frame_needed = 0, uses_anonymous_args = 0
 247 0000 08B5     		push	{r3, lr}
 248              		.cfi_def_cfa_offset 8
 249              		.cfi_offset 3, -8
 250              		.cfi_offset 14, -4
  65:Generated_Source\PSoC5/isr_4.c **** 
 251              		.loc 1 65 0
 252 0002 FFF7FEFF 		bl	isr_4_Disable
 253              	.LVL8:
  68:Generated_Source\PSoC5/isr_4.c **** 
 254              		.loc 1 68 0
 255 0006 0448     		ldr	r0, .L28
 256 0008 FFF7FEFF 		bl	isr_4_SetVector
 257              	.LVL9:
  71:Generated_Source\PSoC5/isr_4.c **** 
 258              		.loc 1 71 0
 259 000c 0720     		movs	r0, #7
 260 000e FFF7FEFF 		bl	isr_4_SetPriority
 261              	.LVL10:
  74:Generated_Source\PSoC5/isr_4.c **** }
 262              		.loc 1 74 0
 263 0012 FFF7FEFF 		bl	isr_4_Enable
 264              	.LVL11:
 265 0016 08BD     		pop	{r3, pc}
 266              	.L29:
 267              		.align	2
 268              	.L28:
 269 0018 00000000 		.word	isr_4_Interrupt
ARM GAS  C:\Users\tmj32\AppData\Local\Temp\ccywTeQa.s 			page 12


 270              		.cfi_endproc
 271              	.LFE64:
 272              		.size	isr_4_Start, .-isr_4_Start
 273              		.section	.text.isr_4_StartEx,"ax",%progbits
 274              		.align	2
 275              		.global	isr_4_StartEx
 276              		.thumb
 277              		.thumb_func
 278              		.type	isr_4_StartEx, %function
 279              	isr_4_StartEx:
 280              	.LFB65:
 106:Generated_Source\PSoC5/isr_4.c ****     /* For all we know the interrupt is active. */
 281              		.loc 1 106 0
 282              		.cfi_startproc
 283              		@ args = 0, pretend = 0, frame = 0
 284              		@ frame_needed = 0, uses_anonymous_args = 0
 285              	.LVL12:
 286 0000 10B5     		push	{r4, lr}
 287              		.cfi_def_cfa_offset 8
 288              		.cfi_offset 4, -8
 289              		.cfi_offset 14, -4
 290 0002 0446     		mov	r4, r0
 108:Generated_Source\PSoC5/isr_4.c **** 
 291              		.loc 1 108 0
 292 0004 FFF7FEFF 		bl	isr_4_Disable
 293              	.LVL13:
 111:Generated_Source\PSoC5/isr_4.c **** 
 294              		.loc 1 111 0
 295 0008 2046     		mov	r0, r4
 296 000a FFF7FEFF 		bl	isr_4_SetVector
 297              	.LVL14:
 114:Generated_Source\PSoC5/isr_4.c **** 
 298              		.loc 1 114 0
 299 000e 0720     		movs	r0, #7
 300 0010 FFF7FEFF 		bl	isr_4_SetPriority
 301              	.LVL15:
 117:Generated_Source\PSoC5/isr_4.c **** }
 302              		.loc 1 117 0
 303 0014 FFF7FEFF 		bl	isr_4_Enable
 304              	.LVL16:
 305 0018 10BD     		pop	{r4, pc}
 306              		.cfi_endproc
 307              	.LFE65:
 308              		.size	isr_4_StartEx, .-isr_4_StartEx
 309 001a 00BF     		.section	.text.isr_4_Stop,"ax",%progbits
 310              		.align	2
 311              		.global	isr_4_Stop
 312              		.thumb
 313              		.thumb_func
 314              		.type	isr_4_Stop, %function
 315              	isr_4_Stop:
 316              	.LFB66:
 136:Generated_Source\PSoC5/isr_4.c ****     /* Disable this interrupt. */
 317              		.loc 1 136 0
 318              		.cfi_startproc
 319              		@ args = 0, pretend = 0, frame = 0
 320              		@ frame_needed = 0, uses_anonymous_args = 0
ARM GAS  C:\Users\tmj32\AppData\Local\Temp\ccywTeQa.s 			page 13


 321 0000 08B5     		push	{r3, lr}
 322              		.cfi_def_cfa_offset 8
 323              		.cfi_offset 3, -8
 324              		.cfi_offset 14, -4
 138:Generated_Source\PSoC5/isr_4.c **** 
 325              		.loc 1 138 0
 326 0002 FFF7FEFF 		bl	isr_4_Disable
 327              	.LVL17:
 141:Generated_Source\PSoC5/isr_4.c **** }
 328              		.loc 1 141 0
 329 0006 0248     		ldr	r0, .L34
 330 0008 FFF7FEFF 		bl	isr_4_SetVector
 331              	.LVL18:
 332 000c 08BD     		pop	{r3, pc}
 333              	.L35:
 334 000e 00BF     		.align	2
 335              	.L34:
 336 0010 00000000 		.word	IntDefaultHandler
 337              		.cfi_endproc
 338              	.LFE66:
 339              		.size	isr_4_Stop, .-isr_4_Stop
 340              		.section	.text.isr_4_SetPending,"ax",%progbits
 341              		.align	2
 342              		.global	isr_4_SetPending
 343              		.thumb
 344              		.thumb_func
 345              		.type	isr_4_SetPending, %function
 346              	isr_4_SetPending:
 347              	.LFB75:
 354:Generated_Source\PSoC5/isr_4.c **** }
 355:Generated_Source\PSoC5/isr_4.c **** 
 356:Generated_Source\PSoC5/isr_4.c **** 
 357:Generated_Source\PSoC5/isr_4.c **** /*******************************************************************************
 358:Generated_Source\PSoC5/isr_4.c **** * Function Name: isr_4_SetPending
 359:Generated_Source\PSoC5/isr_4.c **** ********************************************************************************
 360:Generated_Source\PSoC5/isr_4.c **** *
 361:Generated_Source\PSoC5/isr_4.c **** * Summary:
 362:Generated_Source\PSoC5/isr_4.c **** *   Causes the Interrupt to enter the pending state, a software method of
 363:Generated_Source\PSoC5/isr_4.c **** *   generating the interrupt.
 364:Generated_Source\PSoC5/isr_4.c **** *
 365:Generated_Source\PSoC5/isr_4.c **** * Parameters:
 366:Generated_Source\PSoC5/isr_4.c **** *   None
 367:Generated_Source\PSoC5/isr_4.c **** *
 368:Generated_Source\PSoC5/isr_4.c **** * Return:
 369:Generated_Source\PSoC5/isr_4.c **** *   None
 370:Generated_Source\PSoC5/isr_4.c **** *
 371:Generated_Source\PSoC5/isr_4.c **** * Side Effects:
 372:Generated_Source\PSoC5/isr_4.c **** *   If interrupts are enabled and the interrupt is set up properly, the ISR is
 373:Generated_Source\PSoC5/isr_4.c **** *   entered (depending on the priority of this interrupt and other pending 
 374:Generated_Source\PSoC5/isr_4.c **** *   interrupts).
 375:Generated_Source\PSoC5/isr_4.c **** *
 376:Generated_Source\PSoC5/isr_4.c **** *******************************************************************************/
 377:Generated_Source\PSoC5/isr_4.c **** void isr_4_SetPending(void)
 378:Generated_Source\PSoC5/isr_4.c **** {
 348              		.loc 1 378 0
 349              		.cfi_startproc
 350              		@ args = 0, pretend = 0, frame = 0
ARM GAS  C:\Users\tmj32\AppData\Local\Temp\ccywTeQa.s 			page 14


 351              		@ frame_needed = 0, uses_anonymous_args = 0
 352              		@ link register save eliminated.
 379:Generated_Source\PSoC5/isr_4.c ****     *isr_4_INTC_SET_PD = isr_4__INTC_MASK;
 353              		.loc 1 379 0
 354 0000 0822     		movs	r2, #8
 355 0002 014B     		ldr	r3, .L37
 356 0004 1A60     		str	r2, [r3]
 357 0006 7047     		bx	lr
 358              	.L38:
 359              		.align	2
 360              	.L37:
 361 0008 00E200E0 		.word	-536813056
 362              		.cfi_endproc
 363              	.LFE75:
 364              		.size	isr_4_SetPending, .-isr_4_SetPending
 365              		.section	.text.isr_4_ClearPending,"ax",%progbits
 366              		.align	2
 367              		.global	isr_4_ClearPending
 368              		.thumb
 369              		.thumb_func
 370              		.type	isr_4_ClearPending, %function
 371              	isr_4_ClearPending:
 372              	.LFB76:
 380:Generated_Source\PSoC5/isr_4.c **** }
 381:Generated_Source\PSoC5/isr_4.c **** 
 382:Generated_Source\PSoC5/isr_4.c **** 
 383:Generated_Source\PSoC5/isr_4.c **** /*******************************************************************************
 384:Generated_Source\PSoC5/isr_4.c **** * Function Name: isr_4_ClearPending
 385:Generated_Source\PSoC5/isr_4.c **** ********************************************************************************
 386:Generated_Source\PSoC5/isr_4.c **** *
 387:Generated_Source\PSoC5/isr_4.c **** * Summary:
 388:Generated_Source\PSoC5/isr_4.c **** *   Clears a pending interrupt in the interrupt controller.
 389:Generated_Source\PSoC5/isr_4.c **** *
 390:Generated_Source\PSoC5/isr_4.c **** *   Note Some interrupt sources are clear-on-read and require the block 
 391:Generated_Source\PSoC5/isr_4.c **** *   interrupt/status register to be read/cleared with the appropriate block API 
 392:Generated_Source\PSoC5/isr_4.c **** *   (GPIO, UART, and so on). Otherwise the ISR will continue to remain in 
 393:Generated_Source\PSoC5/isr_4.c **** *   pending state even though the interrupt itself is cleared using this API.
 394:Generated_Source\PSoC5/isr_4.c **** *
 395:Generated_Source\PSoC5/isr_4.c **** * Parameters:
 396:Generated_Source\PSoC5/isr_4.c **** *   None
 397:Generated_Source\PSoC5/isr_4.c **** *
 398:Generated_Source\PSoC5/isr_4.c **** * Return:
 399:Generated_Source\PSoC5/isr_4.c **** *   None
 400:Generated_Source\PSoC5/isr_4.c **** *
 401:Generated_Source\PSoC5/isr_4.c **** *******************************************************************************/
 402:Generated_Source\PSoC5/isr_4.c **** void isr_4_ClearPending(void)
 403:Generated_Source\PSoC5/isr_4.c **** {
 373              		.loc 1 403 0
 374              		.cfi_startproc
 375              		@ args = 0, pretend = 0, frame = 0
 376              		@ frame_needed = 0, uses_anonymous_args = 0
 377              		@ link register save eliminated.
 404:Generated_Source\PSoC5/isr_4.c ****     *isr_4_INTC_CLR_PD = isr_4__INTC_MASK;
 378              		.loc 1 404 0
 379 0000 0822     		movs	r2, #8
 380 0002 014B     		ldr	r3, .L40
 381 0004 1A60     		str	r2, [r3]
ARM GAS  C:\Users\tmj32\AppData\Local\Temp\ccywTeQa.s 			page 15


 382 0006 7047     		bx	lr
 383              	.L41:
 384              		.align	2
 385              	.L40:
 386 0008 80E200E0 		.word	-536812928
 387              		.cfi_endproc
 388              	.LFE76:
 389              		.size	isr_4_ClearPending, .-isr_4_ClearPending
 390              		.text
 391              	.Letext0:
 392              		.file 2 "c:\\program files (x86)\\cypress\\psoc creator\\4.2\\psoc creator\\import\\gnu\\arm\\5.4.
 393              		.file 3 "c:\\program files (x86)\\cypress\\psoc creator\\4.2\\psoc creator\\import\\gnu\\arm\\5.4.
 394              		.file 4 "Generated_Source\\PSoC5/cytypes.h"
 395              		.file 5 "Generated_Source\\PSoC5/core_cm3.h"
 396              		.file 6 "Generated_Source\\PSoC5\\isr_3.h"