ARM GAS  C:\Users\tmj32\AppData\Local\Temp\ccbtobbc.s 			page 1


   1              		.syntax unified
   2              		.cpu cortex-m3
   3              		.fpu softvfp
   4              		.eabi_attribute 20, 1
   5              		.eabi_attribute 21, 1
   6              		.eabi_attribute 23, 3
   7              		.eabi_attribute 24, 1
   8              		.eabi_attribute 25, 1
   9              		.eabi_attribute 26, 1
  10              		.eabi_attribute 30, 1
  11              		.eabi_attribute 34, 1
  12              		.eabi_attribute 18, 4
  13              		.thumb
  14              		.syntax unified
  15              		.file	"isr_1.c"
  16              		.text
  17              	.Ltext0:
  18              		.cfi_sections	.debug_frame
  19              		.section	.text.isr_1_SetVector,"ax",%progbits
  20              		.align	2
  21              		.global	isr_1_SetVector
  22              		.thumb
  23              		.thumb_func
  24              		.type	isr_1_SetVector, %function
  25              	isr_1_SetVector:
  26              	.LFB68:
  27              		.file 1 "Generated_Source\\PSoC5\\isr_1.c"
   1:Generated_Source\PSoC5/isr_1.c **** /*******************************************************************************
   2:Generated_Source\PSoC5/isr_1.c **** * File Name: isr_1.c  
   3:Generated_Source\PSoC5/isr_1.c **** * Version 1.70
   4:Generated_Source\PSoC5/isr_1.c **** *
   5:Generated_Source\PSoC5/isr_1.c **** *  Description:
   6:Generated_Source\PSoC5/isr_1.c **** *   API for controlling the state of an interrupt.
   7:Generated_Source\PSoC5/isr_1.c **** *
   8:Generated_Source\PSoC5/isr_1.c **** *
   9:Generated_Source\PSoC5/isr_1.c **** *  Note:
  10:Generated_Source\PSoC5/isr_1.c **** *
  11:Generated_Source\PSoC5/isr_1.c **** ********************************************************************************
  12:Generated_Source\PSoC5/isr_1.c **** * Copyright 2008-2015, Cypress Semiconductor Corporation.  All rights reserved.
  13:Generated_Source\PSoC5/isr_1.c **** * You may use this file only in accordance with the license, terms, conditions, 
  14:Generated_Source\PSoC5/isr_1.c **** * disclaimers, and limitations in the end user license agreement accompanying 
  15:Generated_Source\PSoC5/isr_1.c **** * the software package with which this file was provided.
  16:Generated_Source\PSoC5/isr_1.c **** *******************************************************************************/
  17:Generated_Source\PSoC5/isr_1.c **** 
  18:Generated_Source\PSoC5/isr_1.c **** 
  19:Generated_Source\PSoC5/isr_1.c **** #include <cydevice_trm.h>
  20:Generated_Source\PSoC5/isr_1.c **** #include <CyLib.h>
  21:Generated_Source\PSoC5/isr_1.c **** #include <isr_1.h>
  22:Generated_Source\PSoC5/isr_1.c **** #include "cyapicallbacks.h"
  23:Generated_Source\PSoC5/isr_1.c **** 
  24:Generated_Source\PSoC5/isr_1.c **** #if !defined(isr_1__REMOVED) /* Check for removal by optimization */
  25:Generated_Source\PSoC5/isr_1.c **** 
  26:Generated_Source\PSoC5/isr_1.c **** /*******************************************************************************
  27:Generated_Source\PSoC5/isr_1.c **** *  Place your includes, defines and code here 
  28:Generated_Source\PSoC5/isr_1.c **** ********************************************************************************/
  29:Generated_Source\PSoC5/isr_1.c **** /* `#START isr_1_intc` */
  30:Generated_Source\PSoC5/isr_1.c **** #include "project.h"
ARM GAS  C:\Users\tmj32\AppData\Local\Temp\ccbtobbc.s 			page 2


  31:Generated_Source\PSoC5/isr_1.c **** #include "stdio.h"
  32:Generated_Source\PSoC5/isr_1.c **** /* `#END` */
  33:Generated_Source\PSoC5/isr_1.c **** 
  34:Generated_Source\PSoC5/isr_1.c **** #ifndef CYINT_IRQ_BASE
  35:Generated_Source\PSoC5/isr_1.c **** #define CYINT_IRQ_BASE      16
  36:Generated_Source\PSoC5/isr_1.c **** #endif /* CYINT_IRQ_BASE */
  37:Generated_Source\PSoC5/isr_1.c **** #ifndef CYINT_VECT_TABLE
  38:Generated_Source\PSoC5/isr_1.c **** #define CYINT_VECT_TABLE    ((cyisraddress **) CYREG_NVIC_VECT_OFFSET)
  39:Generated_Source\PSoC5/isr_1.c **** #endif /* CYINT_VECT_TABLE */
  40:Generated_Source\PSoC5/isr_1.c **** 
  41:Generated_Source\PSoC5/isr_1.c **** /* Declared in startup, used to set unused interrupts to. */
  42:Generated_Source\PSoC5/isr_1.c **** CY_ISR_PROTO(IntDefaultHandler);
  43:Generated_Source\PSoC5/isr_1.c **** 
  44:Generated_Source\PSoC5/isr_1.c **** 
  45:Generated_Source\PSoC5/isr_1.c **** /*******************************************************************************
  46:Generated_Source\PSoC5/isr_1.c **** * Function Name: isr_1_Start
  47:Generated_Source\PSoC5/isr_1.c **** ********************************************************************************
  48:Generated_Source\PSoC5/isr_1.c **** *
  49:Generated_Source\PSoC5/isr_1.c **** * Summary:
  50:Generated_Source\PSoC5/isr_1.c **** *  Set up the interrupt and enable it. This function disables the interrupt, 
  51:Generated_Source\PSoC5/isr_1.c **** *  sets the default interrupt vector, sets the priority from the value in the
  52:Generated_Source\PSoC5/isr_1.c **** *  Design Wide Resources Interrupt Editor, then enables the interrupt to the 
  53:Generated_Source\PSoC5/isr_1.c **** *  interrupt controller.
  54:Generated_Source\PSoC5/isr_1.c **** *
  55:Generated_Source\PSoC5/isr_1.c **** * Parameters:  
  56:Generated_Source\PSoC5/isr_1.c **** *   None
  57:Generated_Source\PSoC5/isr_1.c **** *
  58:Generated_Source\PSoC5/isr_1.c **** * Return:
  59:Generated_Source\PSoC5/isr_1.c **** *   None
  60:Generated_Source\PSoC5/isr_1.c **** *
  61:Generated_Source\PSoC5/isr_1.c **** *******************************************************************************/
  62:Generated_Source\PSoC5/isr_1.c **** void isr_1_Start(void)
  63:Generated_Source\PSoC5/isr_1.c **** {
  64:Generated_Source\PSoC5/isr_1.c ****     /* For all we know the interrupt is active. */
  65:Generated_Source\PSoC5/isr_1.c ****     isr_1_Disable();
  66:Generated_Source\PSoC5/isr_1.c **** 
  67:Generated_Source\PSoC5/isr_1.c ****     /* Set the ISR to point to the isr_1 Interrupt. */
  68:Generated_Source\PSoC5/isr_1.c ****     isr_1_SetVector(&isr_1_Interrupt);
  69:Generated_Source\PSoC5/isr_1.c **** 
  70:Generated_Source\PSoC5/isr_1.c ****     /* Set the priority. */
  71:Generated_Source\PSoC5/isr_1.c ****     isr_1_SetPriority((uint8)isr_1_INTC_PRIOR_NUMBER);
  72:Generated_Source\PSoC5/isr_1.c **** 
  73:Generated_Source\PSoC5/isr_1.c ****     /* Enable it. */
  74:Generated_Source\PSoC5/isr_1.c ****     isr_1_Enable();
  75:Generated_Source\PSoC5/isr_1.c **** }
  76:Generated_Source\PSoC5/isr_1.c **** 
  77:Generated_Source\PSoC5/isr_1.c **** 
  78:Generated_Source\PSoC5/isr_1.c **** /*******************************************************************************
  79:Generated_Source\PSoC5/isr_1.c **** * Function Name: isr_1_StartEx
  80:Generated_Source\PSoC5/isr_1.c **** ********************************************************************************
  81:Generated_Source\PSoC5/isr_1.c **** *
  82:Generated_Source\PSoC5/isr_1.c **** * Summary:
  83:Generated_Source\PSoC5/isr_1.c **** *  Sets up the interrupt and enables it. This function disables the interrupt,
  84:Generated_Source\PSoC5/isr_1.c **** *  sets the interrupt vector based on the address passed in, sets the priority 
  85:Generated_Source\PSoC5/isr_1.c **** *  from the value in the Design Wide Resources Interrupt Editor, then enables 
  86:Generated_Source\PSoC5/isr_1.c **** *  the interrupt to the interrupt controller.
  87:Generated_Source\PSoC5/isr_1.c **** *  
ARM GAS  C:\Users\tmj32\AppData\Local\Temp\ccbtobbc.s 			page 3


  88:Generated_Source\PSoC5/isr_1.c **** *  When defining ISR functions, the CY_ISR and CY_ISR_PROTO macros should be 
  89:Generated_Source\PSoC5/isr_1.c **** *  used to provide consistent definition across compilers:
  90:Generated_Source\PSoC5/isr_1.c **** *  
  91:Generated_Source\PSoC5/isr_1.c **** *  Function definition example:
  92:Generated_Source\PSoC5/isr_1.c **** *   CY_ISR(MyISR)
  93:Generated_Source\PSoC5/isr_1.c **** *   {
  94:Generated_Source\PSoC5/isr_1.c **** *   }
  95:Generated_Source\PSoC5/isr_1.c **** *   Function prototype example:
  96:Generated_Source\PSoC5/isr_1.c **** *   CY_ISR_PROTO(MyISR);
  97:Generated_Source\PSoC5/isr_1.c **** *
  98:Generated_Source\PSoC5/isr_1.c **** * Parameters:  
  99:Generated_Source\PSoC5/isr_1.c **** *   address: Address of the ISR to set in the interrupt vector table.
 100:Generated_Source\PSoC5/isr_1.c **** *
 101:Generated_Source\PSoC5/isr_1.c **** * Return:
 102:Generated_Source\PSoC5/isr_1.c **** *   None
 103:Generated_Source\PSoC5/isr_1.c **** *
 104:Generated_Source\PSoC5/isr_1.c **** *******************************************************************************/
 105:Generated_Source\PSoC5/isr_1.c **** void isr_1_StartEx(cyisraddress address)
 106:Generated_Source\PSoC5/isr_1.c **** {
 107:Generated_Source\PSoC5/isr_1.c ****     /* For all we know the interrupt is active. */
 108:Generated_Source\PSoC5/isr_1.c ****     isr_1_Disable();
 109:Generated_Source\PSoC5/isr_1.c **** 
 110:Generated_Source\PSoC5/isr_1.c ****     /* Set the ISR to point to the isr_1 Interrupt. */
 111:Generated_Source\PSoC5/isr_1.c ****     isr_1_SetVector(address);
 112:Generated_Source\PSoC5/isr_1.c **** 
 113:Generated_Source\PSoC5/isr_1.c ****     /* Set the priority. */
 114:Generated_Source\PSoC5/isr_1.c ****     isr_1_SetPriority((uint8)isr_1_INTC_PRIOR_NUMBER);
 115:Generated_Source\PSoC5/isr_1.c **** 
 116:Generated_Source\PSoC5/isr_1.c ****     /* Enable it. */
 117:Generated_Source\PSoC5/isr_1.c ****     isr_1_Enable();
 118:Generated_Source\PSoC5/isr_1.c **** }
 119:Generated_Source\PSoC5/isr_1.c **** 
 120:Generated_Source\PSoC5/isr_1.c **** 
 121:Generated_Source\PSoC5/isr_1.c **** /*******************************************************************************
 122:Generated_Source\PSoC5/isr_1.c **** * Function Name: isr_1_Stop
 123:Generated_Source\PSoC5/isr_1.c **** ********************************************************************************
 124:Generated_Source\PSoC5/isr_1.c **** *
 125:Generated_Source\PSoC5/isr_1.c **** * Summary:
 126:Generated_Source\PSoC5/isr_1.c **** *   Disables and removes the interrupt.
 127:Generated_Source\PSoC5/isr_1.c **** *
 128:Generated_Source\PSoC5/isr_1.c **** * Parameters:  
 129:Generated_Source\PSoC5/isr_1.c **** *   None
 130:Generated_Source\PSoC5/isr_1.c **** *
 131:Generated_Source\PSoC5/isr_1.c **** * Return:
 132:Generated_Source\PSoC5/isr_1.c **** *   None
 133:Generated_Source\PSoC5/isr_1.c **** *
 134:Generated_Source\PSoC5/isr_1.c **** *******************************************************************************/
 135:Generated_Source\PSoC5/isr_1.c **** void isr_1_Stop(void)
 136:Generated_Source\PSoC5/isr_1.c **** {
 137:Generated_Source\PSoC5/isr_1.c ****     /* Disable this interrupt. */
 138:Generated_Source\PSoC5/isr_1.c ****     isr_1_Disable();
 139:Generated_Source\PSoC5/isr_1.c **** 
 140:Generated_Source\PSoC5/isr_1.c ****     /* Set the ISR to point to the passive one. */
 141:Generated_Source\PSoC5/isr_1.c ****     isr_1_SetVector(&IntDefaultHandler);
 142:Generated_Source\PSoC5/isr_1.c **** }
 143:Generated_Source\PSoC5/isr_1.c **** 
 144:Generated_Source\PSoC5/isr_1.c **** 
ARM GAS  C:\Users\tmj32\AppData\Local\Temp\ccbtobbc.s 			page 4


 145:Generated_Source\PSoC5/isr_1.c **** /*******************************************************************************
 146:Generated_Source\PSoC5/isr_1.c **** * Function Name: isr_1_Interrupt
 147:Generated_Source\PSoC5/isr_1.c **** ********************************************************************************
 148:Generated_Source\PSoC5/isr_1.c **** *
 149:Generated_Source\PSoC5/isr_1.c **** * Summary:
 150:Generated_Source\PSoC5/isr_1.c **** *   The default Interrupt Service Routine for isr_1.
 151:Generated_Source\PSoC5/isr_1.c **** *
 152:Generated_Source\PSoC5/isr_1.c **** *   Add custom code between the coments to keep the next version of this file
 153:Generated_Source\PSoC5/isr_1.c **** *   from over writting your code.
 154:Generated_Source\PSoC5/isr_1.c **** *
 155:Generated_Source\PSoC5/isr_1.c **** * Parameters:  
 156:Generated_Source\PSoC5/isr_1.c **** *
 157:Generated_Source\PSoC5/isr_1.c **** * Return:
 158:Generated_Source\PSoC5/isr_1.c **** *   None
 159:Generated_Source\PSoC5/isr_1.c **** *
 160:Generated_Source\PSoC5/isr_1.c **** *******************************************************************************/
 161:Generated_Source\PSoC5/isr_1.c **** CY_ISR(isr_1_Interrupt)
 162:Generated_Source\PSoC5/isr_1.c **** {
 163:Generated_Source\PSoC5/isr_1.c ****     #ifdef isr_1_INTERRUPT_INTERRUPT_CALLBACK
 164:Generated_Source\PSoC5/isr_1.c ****         isr_1_Interrupt_InterruptCallback();
 165:Generated_Source\PSoC5/isr_1.c ****     #endif /* isr_1_INTERRUPT_INTERRUPT_CALLBACK */ 
 166:Generated_Source\PSoC5/isr_1.c **** 
 167:Generated_Source\PSoC5/isr_1.c ****     /*  Place your Interrupt code here. */
 168:Generated_Source\PSoC5/isr_1.c ****     /* `#START isr_1_Interrupt` */
 169:Generated_Source\PSoC5/isr_1.c ****     int x = 0;
 170:Generated_Source\PSoC5/isr_1.c ****     char str1[15];
 171:Generated_Source\PSoC5/isr_1.c **** 
 172:Generated_Source\PSoC5/isr_1.c ****     while (x<25)
 173:Generated_Source\PSoC5/isr_1.c ****     {
 174:Generated_Source\PSoC5/isr_1.c ****         PWM_1_WriteCompare(x);
 175:Generated_Source\PSoC5/isr_1.c ****         x = x + 1;
 176:Generated_Source\PSoC5/isr_1.c ****          
 177:Generated_Source\PSoC5/isr_1.c ****         LCD_ClearDisplay();
 178:Generated_Source\PSoC5/isr_1.c ****         LCD_Position(0,0);
 179:Generated_Source\PSoC5/isr_1.c ****         sprintf(str1, "%d",x );
 180:Generated_Source\PSoC5/isr_1.c ****         LCD_PrintString(str1);
 181:Generated_Source\PSoC5/isr_1.c ****         CyDelay(10);
 182:Generated_Source\PSoC5/isr_1.c ****     }
 183:Generated_Source\PSoC5/isr_1.c ****     isr_1_Stop();
 184:Generated_Source\PSoC5/isr_1.c ****     /* `#END` */
 185:Generated_Source\PSoC5/isr_1.c **** }
 186:Generated_Source\PSoC5/isr_1.c **** 
 187:Generated_Source\PSoC5/isr_1.c **** 
 188:Generated_Source\PSoC5/isr_1.c **** /*******************************************************************************
 189:Generated_Source\PSoC5/isr_1.c **** * Function Name: isr_1_SetVector
 190:Generated_Source\PSoC5/isr_1.c **** ********************************************************************************
 191:Generated_Source\PSoC5/isr_1.c **** *
 192:Generated_Source\PSoC5/isr_1.c **** * Summary:
 193:Generated_Source\PSoC5/isr_1.c **** *   Change the ISR vector for the Interrupt. Note calling isr_1_Start
 194:Generated_Source\PSoC5/isr_1.c **** *   will override any effect this method would have had. To set the vector 
 195:Generated_Source\PSoC5/isr_1.c **** *   before the component has been started use isr_1_StartEx instead.
 196:Generated_Source\PSoC5/isr_1.c **** * 
 197:Generated_Source\PSoC5/isr_1.c **** *   When defining ISR functions, the CY_ISR and CY_ISR_PROTO macros should be 
 198:Generated_Source\PSoC5/isr_1.c **** *   used to provide consistent definition across compilers:
 199:Generated_Source\PSoC5/isr_1.c **** *
 200:Generated_Source\PSoC5/isr_1.c **** *   Function definition example:
 201:Generated_Source\PSoC5/isr_1.c **** *   CY_ISR(MyISR)
ARM GAS  C:\Users\tmj32\AppData\Local\Temp\ccbtobbc.s 			page 5


 202:Generated_Source\PSoC5/isr_1.c **** *   {
 203:Generated_Source\PSoC5/isr_1.c **** *   }
 204:Generated_Source\PSoC5/isr_1.c **** *
 205:Generated_Source\PSoC5/isr_1.c **** *   Function prototype example:
 206:Generated_Source\PSoC5/isr_1.c **** *     CY_ISR_PROTO(MyISR);
 207:Generated_Source\PSoC5/isr_1.c **** *
 208:Generated_Source\PSoC5/isr_1.c **** * Parameters:
 209:Generated_Source\PSoC5/isr_1.c **** *   address: Address of the ISR to set in the interrupt vector table.
 210:Generated_Source\PSoC5/isr_1.c **** *
 211:Generated_Source\PSoC5/isr_1.c **** * Return:
 212:Generated_Source\PSoC5/isr_1.c **** *   None
 213:Generated_Source\PSoC5/isr_1.c **** *
 214:Generated_Source\PSoC5/isr_1.c **** *******************************************************************************/
 215:Generated_Source\PSoC5/isr_1.c **** void isr_1_SetVector(cyisraddress address)
 216:Generated_Source\PSoC5/isr_1.c **** {
  28              		.loc 1 216 0
  29              		.cfi_startproc
  30              		@ args = 0, pretend = 0, frame = 0
  31              		@ frame_needed = 0, uses_anonymous_args = 0
  32              		@ link register save eliminated.
  33              	.LVL0:
 217:Generated_Source\PSoC5/isr_1.c ****     cyisraddress * ramVectorTable;
 218:Generated_Source\PSoC5/isr_1.c **** 
 219:Generated_Source\PSoC5/isr_1.c ****     ramVectorTable = (cyisraddress *) *CYINT_VECT_TABLE;
  34              		.loc 1 219 0
  35 0000 014B     		ldr	r3, .L2
  36 0002 1B68     		ldr	r3, [r3]
  37              	.LVL1:
 220:Generated_Source\PSoC5/isr_1.c **** 
 221:Generated_Source\PSoC5/isr_1.c ****     ramVectorTable[CYINT_IRQ_BASE + (uint32)isr_1__INTC_NUMBER] = address;
  38              		.loc 1 221 0
  39 0004 1864     		str	r0, [r3, #64]
  40 0006 7047     		bx	lr
  41              	.L3:
  42              		.align	2
  43              	.L2:
  44 0008 08ED00E0 		.word	-536810232
  45              		.cfi_endproc
  46              	.LFE68:
  47              		.size	isr_1_SetVector, .-isr_1_SetVector
  48              		.section	.text.isr_1_GetVector,"ax",%progbits
  49              		.align	2
  50              		.global	isr_1_GetVector
  51              		.thumb
  52              		.thumb_func
  53              		.type	isr_1_GetVector, %function
  54              	isr_1_GetVector:
  55              	.LFB69:
 222:Generated_Source\PSoC5/isr_1.c **** }
 223:Generated_Source\PSoC5/isr_1.c **** 
 224:Generated_Source\PSoC5/isr_1.c **** 
 225:Generated_Source\PSoC5/isr_1.c **** /*******************************************************************************
 226:Generated_Source\PSoC5/isr_1.c **** * Function Name: isr_1_GetVector
 227:Generated_Source\PSoC5/isr_1.c **** ********************************************************************************
 228:Generated_Source\PSoC5/isr_1.c **** *
 229:Generated_Source\PSoC5/isr_1.c **** * Summary:
 230:Generated_Source\PSoC5/isr_1.c **** *   Gets the "address" of the current ISR vector for the Interrupt.
ARM GAS  C:\Users\tmj32\AppData\Local\Temp\ccbtobbc.s 			page 6


 231:Generated_Source\PSoC5/isr_1.c **** *
 232:Generated_Source\PSoC5/isr_1.c **** * Parameters:
 233:Generated_Source\PSoC5/isr_1.c **** *   None
 234:Generated_Source\PSoC5/isr_1.c **** *
 235:Generated_Source\PSoC5/isr_1.c **** * Return:
 236:Generated_Source\PSoC5/isr_1.c **** *   Address of the ISR in the interrupt vector table.
 237:Generated_Source\PSoC5/isr_1.c **** *
 238:Generated_Source\PSoC5/isr_1.c **** *******************************************************************************/
 239:Generated_Source\PSoC5/isr_1.c **** cyisraddress isr_1_GetVector(void)
 240:Generated_Source\PSoC5/isr_1.c **** {
  56              		.loc 1 240 0
  57              		.cfi_startproc
  58              		@ args = 0, pretend = 0, frame = 0
  59              		@ frame_needed = 0, uses_anonymous_args = 0
  60              		@ link register save eliminated.
 241:Generated_Source\PSoC5/isr_1.c ****     cyisraddress * ramVectorTable;
 242:Generated_Source\PSoC5/isr_1.c **** 
 243:Generated_Source\PSoC5/isr_1.c ****     ramVectorTable = (cyisraddress *) *CYINT_VECT_TABLE;
  61              		.loc 1 243 0
  62 0000 014B     		ldr	r3, .L5
  63 0002 1B68     		ldr	r3, [r3]
  64              	.LVL2:
 244:Generated_Source\PSoC5/isr_1.c **** 
 245:Generated_Source\PSoC5/isr_1.c ****     return ramVectorTable[CYINT_IRQ_BASE + (uint32)isr_1__INTC_NUMBER];
 246:Generated_Source\PSoC5/isr_1.c **** }
  65              		.loc 1 246 0
  66 0004 186C     		ldr	r0, [r3, #64]
  67 0006 7047     		bx	lr
  68              	.L6:
  69              		.align	2
  70              	.L5:
  71 0008 08ED00E0 		.word	-536810232
  72              		.cfi_endproc
  73              	.LFE69:
  74              		.size	isr_1_GetVector, .-isr_1_GetVector
  75              		.section	.text.isr_1_SetPriority,"ax",%progbits
  76              		.align	2
  77              		.global	isr_1_SetPriority
  78              		.thumb
  79              		.thumb_func
  80              		.type	isr_1_SetPriority, %function
  81              	isr_1_SetPriority:
  82              	.LFB70:
 247:Generated_Source\PSoC5/isr_1.c **** 
 248:Generated_Source\PSoC5/isr_1.c **** 
 249:Generated_Source\PSoC5/isr_1.c **** /*******************************************************************************
 250:Generated_Source\PSoC5/isr_1.c **** * Function Name: isr_1_SetPriority
 251:Generated_Source\PSoC5/isr_1.c **** ********************************************************************************
 252:Generated_Source\PSoC5/isr_1.c **** *
 253:Generated_Source\PSoC5/isr_1.c **** * Summary:
 254:Generated_Source\PSoC5/isr_1.c **** *   Sets the Priority of the Interrupt. 
 255:Generated_Source\PSoC5/isr_1.c **** *
 256:Generated_Source\PSoC5/isr_1.c **** *   Note calling isr_1_Start or isr_1_StartEx will 
 257:Generated_Source\PSoC5/isr_1.c **** *   override any effect this API would have had. This API should only be called
 258:Generated_Source\PSoC5/isr_1.c **** *   after isr_1_Start or isr_1_StartEx has been called. 
 259:Generated_Source\PSoC5/isr_1.c **** *   To set the initial priority for the component, use the Design-Wide Resources
 260:Generated_Source\PSoC5/isr_1.c **** *   Interrupt Editor.
ARM GAS  C:\Users\tmj32\AppData\Local\Temp\ccbtobbc.s 			page 7


 261:Generated_Source\PSoC5/isr_1.c **** *
 262:Generated_Source\PSoC5/isr_1.c **** *   Note This API has no effect on Non-maskable interrupt NMI).
 263:Generated_Source\PSoC5/isr_1.c **** *
 264:Generated_Source\PSoC5/isr_1.c **** * Parameters:
 265:Generated_Source\PSoC5/isr_1.c **** *   priority: Priority of the interrupt, 0 being the highest priority
 266:Generated_Source\PSoC5/isr_1.c **** *             PSoC 3 and PSoC 5LP: Priority is from 0 to 7.
 267:Generated_Source\PSoC5/isr_1.c **** *             PSoC 4: Priority is from 0 to 3.
 268:Generated_Source\PSoC5/isr_1.c **** *
 269:Generated_Source\PSoC5/isr_1.c **** * Return:
 270:Generated_Source\PSoC5/isr_1.c **** *   None
 271:Generated_Source\PSoC5/isr_1.c **** *
 272:Generated_Source\PSoC5/isr_1.c **** *******************************************************************************/
 273:Generated_Source\PSoC5/isr_1.c **** void isr_1_SetPriority(uint8 priority)
 274:Generated_Source\PSoC5/isr_1.c **** {
  83              		.loc 1 274 0
  84              		.cfi_startproc
  85              		@ args = 0, pretend = 0, frame = 0
  86              		@ frame_needed = 0, uses_anonymous_args = 0
  87              		@ link register save eliminated.
  88              	.LVL3:
 275:Generated_Source\PSoC5/isr_1.c ****     *isr_1_INTC_PRIOR = priority << 5;
  89              		.loc 1 275 0
  90 0000 4001     		lsls	r0, r0, #5
  91              	.LVL4:
  92 0002 C0B2     		uxtb	r0, r0
  93 0004 014B     		ldr	r3, .L8
  94 0006 1870     		strb	r0, [r3]
  95 0008 7047     		bx	lr
  96              	.L9:
  97 000a 00BF     		.align	2
  98              	.L8:
  99 000c 00E400E0 		.word	-536812544
 100              		.cfi_endproc
 101              	.LFE70:
 102              		.size	isr_1_SetPriority, .-isr_1_SetPriority
 103              		.section	.text.isr_1_GetPriority,"ax",%progbits
 104              		.align	2
 105              		.global	isr_1_GetPriority
 106              		.thumb
 107              		.thumb_func
 108              		.type	isr_1_GetPriority, %function
 109              	isr_1_GetPriority:
 110              	.LFB71:
 276:Generated_Source\PSoC5/isr_1.c **** }
 277:Generated_Source\PSoC5/isr_1.c **** 
 278:Generated_Source\PSoC5/isr_1.c **** 
 279:Generated_Source\PSoC5/isr_1.c **** /*******************************************************************************
 280:Generated_Source\PSoC5/isr_1.c **** * Function Name: isr_1_GetPriority
 281:Generated_Source\PSoC5/isr_1.c **** ********************************************************************************
 282:Generated_Source\PSoC5/isr_1.c **** *
 283:Generated_Source\PSoC5/isr_1.c **** * Summary:
 284:Generated_Source\PSoC5/isr_1.c **** *   Gets the Priority of the Interrupt.
 285:Generated_Source\PSoC5/isr_1.c **** *
 286:Generated_Source\PSoC5/isr_1.c **** * Parameters:
 287:Generated_Source\PSoC5/isr_1.c **** *   None
 288:Generated_Source\PSoC5/isr_1.c **** *
 289:Generated_Source\PSoC5/isr_1.c **** * Return:
ARM GAS  C:\Users\tmj32\AppData\Local\Temp\ccbtobbc.s 			page 8


 290:Generated_Source\PSoC5/isr_1.c **** *   Priority of the interrupt, 0 being the highest priority
 291:Generated_Source\PSoC5/isr_1.c **** *    PSoC 3 and PSoC 5LP: Priority is from 0 to 7.
 292:Generated_Source\PSoC5/isr_1.c **** *    PSoC 4: Priority is from 0 to 3.
 293:Generated_Source\PSoC5/isr_1.c **** *
 294:Generated_Source\PSoC5/isr_1.c **** *******************************************************************************/
 295:Generated_Source\PSoC5/isr_1.c **** uint8 isr_1_GetPriority(void)
 296:Generated_Source\PSoC5/isr_1.c **** {
 111              		.loc 1 296 0
 112              		.cfi_startproc
 113              		@ args = 0, pretend = 0, frame = 0
 114              		@ frame_needed = 0, uses_anonymous_args = 0
 115              		@ link register save eliminated.
 297:Generated_Source\PSoC5/isr_1.c ****     uint8 priority;
 298:Generated_Source\PSoC5/isr_1.c **** 
 299:Generated_Source\PSoC5/isr_1.c **** 
 300:Generated_Source\PSoC5/isr_1.c ****     priority = *isr_1_INTC_PRIOR >> 5;
 116              		.loc 1 300 0
 117 0000 014B     		ldr	r3, .L11
 118 0002 1878     		ldrb	r0, [r3]	@ zero_extendqisi2
 119              	.LVL5:
 301:Generated_Source\PSoC5/isr_1.c **** 
 302:Generated_Source\PSoC5/isr_1.c ****     return priority;
 303:Generated_Source\PSoC5/isr_1.c **** }
 120              		.loc 1 303 0
 121 0004 4009     		lsrs	r0, r0, #5
 122              	.LVL6:
 123 0006 7047     		bx	lr
 124              	.L12:
 125              		.align	2
 126              	.L11:
 127 0008 00E400E0 		.word	-536812544
 128              		.cfi_endproc
 129              	.LFE71:
 130              		.size	isr_1_GetPriority, .-isr_1_GetPriority
 131              		.section	.text.isr_1_Enable,"ax",%progbits
 132              		.align	2
 133              		.global	isr_1_Enable
 134              		.thumb
 135              		.thumb_func
 136              		.type	isr_1_Enable, %function
 137              	isr_1_Enable:
 138              	.LFB72:
 304:Generated_Source\PSoC5/isr_1.c **** 
 305:Generated_Source\PSoC5/isr_1.c **** 
 306:Generated_Source\PSoC5/isr_1.c **** /*******************************************************************************
 307:Generated_Source\PSoC5/isr_1.c **** * Function Name: isr_1_Enable
 308:Generated_Source\PSoC5/isr_1.c **** ********************************************************************************
 309:Generated_Source\PSoC5/isr_1.c **** *
 310:Generated_Source\PSoC5/isr_1.c **** * Summary:
 311:Generated_Source\PSoC5/isr_1.c **** *   Enables the interrupt to the interrupt controller. Do not call this function
 312:Generated_Source\PSoC5/isr_1.c **** *   unless ISR_Start() has been called or the functionality of the ISR_Start() 
 313:Generated_Source\PSoC5/isr_1.c **** *   function, which sets the vector and the priority, has been called.
 314:Generated_Source\PSoC5/isr_1.c **** *
 315:Generated_Source\PSoC5/isr_1.c **** * Parameters:
 316:Generated_Source\PSoC5/isr_1.c **** *   None
 317:Generated_Source\PSoC5/isr_1.c **** *
 318:Generated_Source\PSoC5/isr_1.c **** * Return:
ARM GAS  C:\Users\tmj32\AppData\Local\Temp\ccbtobbc.s 			page 9


 319:Generated_Source\PSoC5/isr_1.c **** *   None
 320:Generated_Source\PSoC5/isr_1.c **** *
 321:Generated_Source\PSoC5/isr_1.c **** *******************************************************************************/
 322:Generated_Source\PSoC5/isr_1.c **** void isr_1_Enable(void)
 323:Generated_Source\PSoC5/isr_1.c **** {
 139              		.loc 1 323 0
 140              		.cfi_startproc
 141              		@ args = 0, pretend = 0, frame = 0
 142              		@ frame_needed = 0, uses_anonymous_args = 0
 143              		@ link register save eliminated.
 324:Generated_Source\PSoC5/isr_1.c ****     /* Enable the general interrupt. */
 325:Generated_Source\PSoC5/isr_1.c ****     *isr_1_INTC_SET_EN = isr_1__INTC_MASK;
 144              		.loc 1 325 0
 145 0000 0122     		movs	r2, #1
 146 0002 014B     		ldr	r3, .L14
 147 0004 1A60     		str	r2, [r3]
 148 0006 7047     		bx	lr
 149              	.L15:
 150              		.align	2
 151              	.L14:
 152 0008 00E100E0 		.word	-536813312
 153              		.cfi_endproc
 154              	.LFE72:
 155              		.size	isr_1_Enable, .-isr_1_Enable
 156              		.section	.text.isr_1_GetState,"ax",%progbits
 157              		.align	2
 158              		.global	isr_1_GetState
 159              		.thumb
 160              		.thumb_func
 161              		.type	isr_1_GetState, %function
 162              	isr_1_GetState:
 163              	.LFB73:
 326:Generated_Source\PSoC5/isr_1.c **** }
 327:Generated_Source\PSoC5/isr_1.c **** 
 328:Generated_Source\PSoC5/isr_1.c **** 
 329:Generated_Source\PSoC5/isr_1.c **** /*******************************************************************************
 330:Generated_Source\PSoC5/isr_1.c **** * Function Name: isr_1_GetState
 331:Generated_Source\PSoC5/isr_1.c **** ********************************************************************************
 332:Generated_Source\PSoC5/isr_1.c **** *
 333:Generated_Source\PSoC5/isr_1.c **** * Summary:
 334:Generated_Source\PSoC5/isr_1.c **** *   Gets the state (enabled, disabled) of the Interrupt.
 335:Generated_Source\PSoC5/isr_1.c **** *
 336:Generated_Source\PSoC5/isr_1.c **** * Parameters:
 337:Generated_Source\PSoC5/isr_1.c **** *   None
 338:Generated_Source\PSoC5/isr_1.c **** *
 339:Generated_Source\PSoC5/isr_1.c **** * Return:
 340:Generated_Source\PSoC5/isr_1.c **** *   1 if enabled, 0 if disabled.
 341:Generated_Source\PSoC5/isr_1.c **** *
 342:Generated_Source\PSoC5/isr_1.c **** *******************************************************************************/
 343:Generated_Source\PSoC5/isr_1.c **** uint8 isr_1_GetState(void)
 344:Generated_Source\PSoC5/isr_1.c **** {
 164              		.loc 1 344 0
 165              		.cfi_startproc
 166              		@ args = 0, pretend = 0, frame = 0
 167              		@ frame_needed = 0, uses_anonymous_args = 0
 168              		@ link register save eliminated.
 345:Generated_Source\PSoC5/isr_1.c ****     /* Get the state of the general interrupt. */
ARM GAS  C:\Users\tmj32\AppData\Local\Temp\ccbtobbc.s 			page 10


 346:Generated_Source\PSoC5/isr_1.c ****     return ((*isr_1_INTC_SET_EN & (uint32)isr_1__INTC_MASK) != 0u) ? 1u:0u;
 169              		.loc 1 346 0
 170 0000 024B     		ldr	r3, .L17
 171 0002 1868     		ldr	r0, [r3]
 347:Generated_Source\PSoC5/isr_1.c **** }
 172              		.loc 1 347 0
 173 0004 00F00100 		and	r0, r0, #1
 174 0008 7047     		bx	lr
 175              	.L18:
 176 000a 00BF     		.align	2
 177              	.L17:
 178 000c 00E100E0 		.word	-536813312
 179              		.cfi_endproc
 180              	.LFE73:
 181              		.size	isr_1_GetState, .-isr_1_GetState
 182              		.section	.text.isr_1_Disable,"ax",%progbits
 183              		.align	2
 184              		.global	isr_1_Disable
 185              		.thumb
 186              		.thumb_func
 187              		.type	isr_1_Disable, %function
 188              	isr_1_Disable:
 189              	.LFB74:
 348:Generated_Source\PSoC5/isr_1.c **** 
 349:Generated_Source\PSoC5/isr_1.c **** 
 350:Generated_Source\PSoC5/isr_1.c **** /*******************************************************************************
 351:Generated_Source\PSoC5/isr_1.c **** * Function Name: isr_1_Disable
 352:Generated_Source\PSoC5/isr_1.c **** ********************************************************************************
 353:Generated_Source\PSoC5/isr_1.c **** *
 354:Generated_Source\PSoC5/isr_1.c **** * Summary:
 355:Generated_Source\PSoC5/isr_1.c **** *   Disables the Interrupt in the interrupt controller.
 356:Generated_Source\PSoC5/isr_1.c **** *
 357:Generated_Source\PSoC5/isr_1.c **** * Parameters:
 358:Generated_Source\PSoC5/isr_1.c **** *   None
 359:Generated_Source\PSoC5/isr_1.c **** *
 360:Generated_Source\PSoC5/isr_1.c **** * Return:
 361:Generated_Source\PSoC5/isr_1.c **** *   None
 362:Generated_Source\PSoC5/isr_1.c **** *
 363:Generated_Source\PSoC5/isr_1.c **** *******************************************************************************/
 364:Generated_Source\PSoC5/isr_1.c **** void isr_1_Disable(void)
 365:Generated_Source\PSoC5/isr_1.c **** {
 190              		.loc 1 365 0
 191              		.cfi_startproc
 192              		@ args = 0, pretend = 0, frame = 0
 193              		@ frame_needed = 0, uses_anonymous_args = 0
 194              		@ link register save eliminated.
 366:Generated_Source\PSoC5/isr_1.c ****     /* Disable the general interrupt. */
 367:Generated_Source\PSoC5/isr_1.c ****     *isr_1_INTC_CLR_EN = isr_1__INTC_MASK;
 195              		.loc 1 367 0
 196 0000 0122     		movs	r2, #1
 197 0002 014B     		ldr	r3, .L20
 198 0004 1A60     		str	r2, [r3]
 199 0006 7047     		bx	lr
 200              	.L21:
 201              		.align	2
 202              	.L20:
 203 0008 80E100E0 		.word	-536813184
ARM GAS  C:\Users\tmj32\AppData\Local\Temp\ccbtobbc.s 			page 11


 204              		.cfi_endproc
 205              	.LFE74:
 206              		.size	isr_1_Disable, .-isr_1_Disable
 207              		.section	.text.isr_1_Start,"ax",%progbits
 208              		.align	2
 209              		.global	isr_1_Start
 210              		.thumb
 211              		.thumb_func
 212              		.type	isr_1_Start, %function
 213              	isr_1_Start:
 214              	.LFB64:
  63:Generated_Source\PSoC5/isr_1.c ****     /* For all we know the interrupt is active. */
 215              		.loc 1 63 0
 216              		.cfi_startproc
 217              		@ args = 0, pretend = 0, frame = 0
 218              		@ frame_needed = 0, uses_anonymous_args = 0
 219 0000 08B5     		push	{r3, lr}
 220              		.cfi_def_cfa_offset 8
 221              		.cfi_offset 3, -8
 222              		.cfi_offset 14, -4
  65:Generated_Source\PSoC5/isr_1.c **** 
 223              		.loc 1 65 0
 224 0002 FFF7FEFF 		bl	isr_1_Disable
 225              	.LVL7:
  68:Generated_Source\PSoC5/isr_1.c **** 
 226              		.loc 1 68 0
 227 0006 0448     		ldr	r0, .L24
 228 0008 FFF7FEFF 		bl	isr_1_SetVector
 229              	.LVL8:
  71:Generated_Source\PSoC5/isr_1.c **** 
 230              		.loc 1 71 0
 231 000c 0720     		movs	r0, #7
 232 000e FFF7FEFF 		bl	isr_1_SetPriority
 233              	.LVL9:
  74:Generated_Source\PSoC5/isr_1.c **** }
 234              		.loc 1 74 0
 235 0012 FFF7FEFF 		bl	isr_1_Enable
 236              	.LVL10:
 237 0016 08BD     		pop	{r3, pc}
 238              	.L25:
 239              		.align	2
 240              	.L24:
 241 0018 00000000 		.word	isr_1_Interrupt
 242              		.cfi_endproc
 243              	.LFE64:
 244              		.size	isr_1_Start, .-isr_1_Start
 245              		.section	.text.isr_1_StartEx,"ax",%progbits
 246              		.align	2
 247              		.global	isr_1_StartEx
 248              		.thumb
 249              		.thumb_func
 250              		.type	isr_1_StartEx, %function
 251              	isr_1_StartEx:
 252              	.LFB65:
 106:Generated_Source\PSoC5/isr_1.c ****     /* For all we know the interrupt is active. */
 253              		.loc 1 106 0
 254              		.cfi_startproc
ARM GAS  C:\Users\tmj32\AppData\Local\Temp\ccbtobbc.s 			page 12


 255              		@ args = 0, pretend = 0, frame = 0
 256              		@ frame_needed = 0, uses_anonymous_args = 0
 257              	.LVL11:
 258 0000 10B5     		push	{r4, lr}
 259              		.cfi_def_cfa_offset 8
 260              		.cfi_offset 4, -8
 261              		.cfi_offset 14, -4
 262 0002 0446     		mov	r4, r0
 108:Generated_Source\PSoC5/isr_1.c **** 
 263              		.loc 1 108 0
 264 0004 FFF7FEFF 		bl	isr_1_Disable
 265              	.LVL12:
 111:Generated_Source\PSoC5/isr_1.c **** 
 266              		.loc 1 111 0
 267 0008 2046     		mov	r0, r4
 268 000a FFF7FEFF 		bl	isr_1_SetVector
 269              	.LVL13:
 114:Generated_Source\PSoC5/isr_1.c **** 
 270              		.loc 1 114 0
 271 000e 0720     		movs	r0, #7
 272 0010 FFF7FEFF 		bl	isr_1_SetPriority
 273              	.LVL14:
 117:Generated_Source\PSoC5/isr_1.c **** }
 274              		.loc 1 117 0
 275 0014 FFF7FEFF 		bl	isr_1_Enable
 276              	.LVL15:
 277 0018 10BD     		pop	{r4, pc}
 278              		.cfi_endproc
 279              	.LFE65:
 280              		.size	isr_1_StartEx, .-isr_1_StartEx
 281 001a 00BF     		.section	.text.isr_1_Stop,"ax",%progbits
 282              		.align	2
 283              		.global	isr_1_Stop
 284              		.thumb
 285              		.thumb_func
 286              		.type	isr_1_Stop, %function
 287              	isr_1_Stop:
 288              	.LFB66:
 136:Generated_Source\PSoC5/isr_1.c ****     /* Disable this interrupt. */
 289              		.loc 1 136 0
 290              		.cfi_startproc
 291              		@ args = 0, pretend = 0, frame = 0
 292              		@ frame_needed = 0, uses_anonymous_args = 0
 293 0000 08B5     		push	{r3, lr}
 294              		.cfi_def_cfa_offset 8
 295              		.cfi_offset 3, -8
 296              		.cfi_offset 14, -4
 138:Generated_Source\PSoC5/isr_1.c **** 
 297              		.loc 1 138 0
 298 0002 FFF7FEFF 		bl	isr_1_Disable
 299              	.LVL16:
 141:Generated_Source\PSoC5/isr_1.c **** }
 300              		.loc 1 141 0
 301 0006 0248     		ldr	r0, .L30
 302 0008 FFF7FEFF 		bl	isr_1_SetVector
 303              	.LVL17:
 304 000c 08BD     		pop	{r3, pc}
ARM GAS  C:\Users\tmj32\AppData\Local\Temp\ccbtobbc.s 			page 13


 305              	.L31:
 306 000e 00BF     		.align	2
 307              	.L30:
 308 0010 00000000 		.word	IntDefaultHandler
 309              		.cfi_endproc
 310              	.LFE66:
 311              		.size	isr_1_Stop, .-isr_1_Stop
 312              		.section	.text.isr_1_Interrupt,"ax",%progbits
 313              		.align	2
 314              		.global	isr_1_Interrupt
 315              		.thumb
 316              		.thumb_func
 317              		.type	isr_1_Interrupt, %function
 318              	isr_1_Interrupt:
 319              	.LFB67:
 162:Generated_Source\PSoC5/isr_1.c ****     #ifdef isr_1_INTERRUPT_INTERRUPT_CALLBACK
 320              		.loc 1 162 0
 321              		.cfi_startproc
 322              		@ args = 0, pretend = 0, frame = 16
 323              		@ frame_needed = 0, uses_anonymous_args = 0
 324 0000 10B5     		push	{r4, lr}
 325              		.cfi_def_cfa_offset 8
 326              		.cfi_offset 4, -8
 327              		.cfi_offset 14, -4
 328 0002 84B0     		sub	sp, sp, #16
 329              		.cfi_def_cfa_offset 24
 330              	.LVL18:
 169:Generated_Source\PSoC5/isr_1.c ****     char str1[15];
 331              		.loc 1 169 0
 332 0004 0024     		movs	r4, #0
 172:Generated_Source\PSoC5/isr_1.c ****     {
 333              		.loc 1 172 0
 334 0006 15E0     		b	.L33
 335              	.LVL19:
 336              	.L34:
 174:Generated_Source\PSoC5/isr_1.c ****         x = x + 1;
 337              		.loc 1 174 0
 338 0008 E0B2     		uxtb	r0, r4
 339 000a FFF7FEFF 		bl	PWM_1_WriteCompare
 340              	.LVL20:
 175:Generated_Source\PSoC5/isr_1.c ****          
 341              		.loc 1 175 0
 342 000e 0134     		adds	r4, r4, #1
 343              	.LVL21:
 177:Generated_Source\PSoC5/isr_1.c ****         LCD_Position(0,0);
 344              		.loc 1 177 0
 345 0010 0120     		movs	r0, #1
 346 0012 FFF7FEFF 		bl	LCD_WriteControl
 347              	.LVL22:
 178:Generated_Source\PSoC5/isr_1.c ****         sprintf(str1, "%d",x );
 348              		.loc 1 178 0
 349 0016 0021     		movs	r1, #0
 350 0018 0846     		mov	r0, r1
 351 001a FFF7FEFF 		bl	LCD_Position
 352              	.LVL23:
 179:Generated_Source\PSoC5/isr_1.c ****         LCD_PrintString(str1);
 353              		.loc 1 179 0
ARM GAS  C:\Users\tmj32\AppData\Local\Temp\ccbtobbc.s 			page 14


 354 001e 2246     		mov	r2, r4
 355 0020 0749     		ldr	r1, .L36
 356 0022 6846     		mov	r0, sp
 357 0024 FFF7FEFF 		bl	sprintf
 358              	.LVL24:
 180:Generated_Source\PSoC5/isr_1.c ****         CyDelay(10);
 359              		.loc 1 180 0
 360 0028 6846     		mov	r0, sp
 361 002a FFF7FEFF 		bl	LCD_PrintString
 362              	.LVL25:
 181:Generated_Source\PSoC5/isr_1.c ****     }
 363              		.loc 1 181 0
 364 002e 0A20     		movs	r0, #10
 365 0030 FFF7FEFF 		bl	CyDelay
 366              	.LVL26:
 367              	.L33:
 172:Generated_Source\PSoC5/isr_1.c ****     {
 368              		.loc 1 172 0
 369 0034 182C     		cmp	r4, #24
 370 0036 E7DD     		ble	.L34
 183:Generated_Source\PSoC5/isr_1.c ****     /* `#END` */
 371              		.loc 1 183 0
 372 0038 FFF7FEFF 		bl	isr_1_Stop
 373              	.LVL27:
 185:Generated_Source\PSoC5/isr_1.c **** 
 374              		.loc 1 185 0
 375 003c 04B0     		add	sp, sp, #16
 376              		.cfi_def_cfa_offset 8
 377              		@ sp needed
 378 003e 10BD     		pop	{r4, pc}
 379              	.LVL28:
 380              	.L37:
 381              		.align	2
 382              	.L36:
 383 0040 00000000 		.word	.LC0
 384              		.cfi_endproc
 385              	.LFE67:
 386              		.size	isr_1_Interrupt, .-isr_1_Interrupt
 387              		.section	.text.isr_1_SetPending,"ax",%progbits
 388              		.align	2
 389              		.global	isr_1_SetPending
 390              		.thumb
 391              		.thumb_func
 392              		.type	isr_1_SetPending, %function
 393              	isr_1_SetPending:
 394              	.LFB75:
 368:Generated_Source\PSoC5/isr_1.c **** }
 369:Generated_Source\PSoC5/isr_1.c **** 
 370:Generated_Source\PSoC5/isr_1.c **** 
 371:Generated_Source\PSoC5/isr_1.c **** /*******************************************************************************
 372:Generated_Source\PSoC5/isr_1.c **** * Function Name: isr_1_SetPending
 373:Generated_Source\PSoC5/isr_1.c **** ********************************************************************************
 374:Generated_Source\PSoC5/isr_1.c **** *
 375:Generated_Source\PSoC5/isr_1.c **** * Summary:
 376:Generated_Source\PSoC5/isr_1.c **** *   Causes the Interrupt to enter the pending state, a software method of
 377:Generated_Source\PSoC5/isr_1.c **** *   generating the interrupt.
 378:Generated_Source\PSoC5/isr_1.c **** *
ARM GAS  C:\Users\tmj32\AppData\Local\Temp\ccbtobbc.s 			page 15


 379:Generated_Source\PSoC5/isr_1.c **** * Parameters:
 380:Generated_Source\PSoC5/isr_1.c **** *   None
 381:Generated_Source\PSoC5/isr_1.c **** *
 382:Generated_Source\PSoC5/isr_1.c **** * Return:
 383:Generated_Source\PSoC5/isr_1.c **** *   None
 384:Generated_Source\PSoC5/isr_1.c **** *
 385:Generated_Source\PSoC5/isr_1.c **** * Side Effects:
 386:Generated_Source\PSoC5/isr_1.c **** *   If interrupts are enabled and the interrupt is set up properly, the ISR is
 387:Generated_Source\PSoC5/isr_1.c **** *   entered (depending on the priority of this interrupt and other pending 
 388:Generated_Source\PSoC5/isr_1.c **** *   interrupts).
 389:Generated_Source\PSoC5/isr_1.c **** *
 390:Generated_Source\PSoC5/isr_1.c **** *******************************************************************************/
 391:Generated_Source\PSoC5/isr_1.c **** void isr_1_SetPending(void)
 392:Generated_Source\PSoC5/isr_1.c **** {
 395              		.loc 1 392 0
 396              		.cfi_startproc
 397              		@ args = 0, pretend = 0, frame = 0
 398              		@ frame_needed = 0, uses_anonymous_args = 0
 399              		@ link register save eliminated.
 393:Generated_Source\PSoC5/isr_1.c ****     *isr_1_INTC_SET_PD = isr_1__INTC_MASK;
 400              		.loc 1 393 0
 401 0000 0122     		movs	r2, #1
 402 0002 014B     		ldr	r3, .L39
 403 0004 1A60     		str	r2, [r3]
 404 0006 7047     		bx	lr
 405              	.L40:
 406              		.align	2
 407              	.L39:
 408 0008 00E200E0 		.word	-536813056
 409              		.cfi_endproc
 410              	.LFE75:
 411              		.size	isr_1_SetPending, .-isr_1_SetPending
 412              		.section	.text.isr_1_ClearPending,"ax",%progbits
 413              		.align	2
 414              		.global	isr_1_ClearPending
 415              		.thumb
 416              		.thumb_func
 417              		.type	isr_1_ClearPending, %function
 418              	isr_1_ClearPending:
 419              	.LFB76:
 394:Generated_Source\PSoC5/isr_1.c **** }
 395:Generated_Source\PSoC5/isr_1.c **** 
 396:Generated_Source\PSoC5/isr_1.c **** 
 397:Generated_Source\PSoC5/isr_1.c **** /*******************************************************************************
 398:Generated_Source\PSoC5/isr_1.c **** * Function Name: isr_1_ClearPending
 399:Generated_Source\PSoC5/isr_1.c **** ********************************************************************************
 400:Generated_Source\PSoC5/isr_1.c **** *
 401:Generated_Source\PSoC5/isr_1.c **** * Summary:
 402:Generated_Source\PSoC5/isr_1.c **** *   Clears a pending interrupt in the interrupt controller.
 403:Generated_Source\PSoC5/isr_1.c **** *
 404:Generated_Source\PSoC5/isr_1.c **** *   Note Some interrupt sources are clear-on-read and require the block 
 405:Generated_Source\PSoC5/isr_1.c **** *   interrupt/status register to be read/cleared with the appropriate block API 
 406:Generated_Source\PSoC5/isr_1.c **** *   (GPIO, UART, and so on). Otherwise the ISR will continue to remain in 
 407:Generated_Source\PSoC5/isr_1.c **** *   pending state even though the interrupt itself is cleared using this API.
 408:Generated_Source\PSoC5/isr_1.c **** *
 409:Generated_Source\PSoC5/isr_1.c **** * Parameters:
 410:Generated_Source\PSoC5/isr_1.c **** *   None
ARM GAS  C:\Users\tmj32\AppData\Local\Temp\ccbtobbc.s 			page 16


 411:Generated_Source\PSoC5/isr_1.c **** *
 412:Generated_Source\PSoC5/isr_1.c **** * Return:
 413:Generated_Source\PSoC5/isr_1.c **** *   None
 414:Generated_Source\PSoC5/isr_1.c **** *
 415:Generated_Source\PSoC5/isr_1.c **** *******************************************************************************/
 416:Generated_Source\PSoC5/isr_1.c **** void isr_1_ClearPending(void)
 417:Generated_Source\PSoC5/isr_1.c **** {
 420              		.loc 1 417 0
 421              		.cfi_startproc
 422              		@ args = 0, pretend = 0, frame = 0
 423              		@ frame_needed = 0, uses_anonymous_args = 0
 424              		@ link register save eliminated.
 418:Generated_Source\PSoC5/isr_1.c ****     *isr_1_INTC_CLR_PD = isr_1__INTC_MASK;
 425              		.loc 1 418 0
 426 0000 0122     		movs	r2, #1
 427 0002 014B     		ldr	r3, .L42
 428 0004 1A60     		str	r2, [r3]
 429 0006 7047     		bx	lr
 430              	.L43:
 431              		.align	2
 432              	.L42:
 433 0008 80E200E0 		.word	-536812928
 434              		.cfi_endproc
 435              	.LFE76:
 436              		.size	isr_1_ClearPending, .-isr_1_ClearPending
 437              		.section	.rodata.str1.4,"aMS",%progbits,1
 438              		.align	2
 439              	.LC0:
 440 0000 256400   		.ascii	"%d\000"
 441              		.text
 442              	.Letext0:
 443              		.file 2 "c:\\program files (x86)\\cypress\\psoc creator\\4.2\\psoc creator\\import\\gnu\\arm\\5.4.
 444              		.file 3 "c:\\program files (x86)\\cypress\\psoc creator\\4.2\\psoc creator\\import\\gnu\\arm\\5.4.
 445              		.file 4 "Generated_Source\\PSoC5/cytypes.h"
 446              		.file 5 "Generated_Source\\PSoC5\\PWM_1.h"
 447              		.file 6 "Generated_Source\\PSoC5\\LCD.h"
 448              		.file 7 "c:\\program files (x86)\\cypress\\psoc creator\\4.2\\psoc creator\\import\\gnu\\arm\\5.4.
 449              		.file 8 "Generated_Source\\PSoC5/CyLib.h"
 450              		.file 9 "Generated_Source\\PSoC5/core_cm3.h"