ARM GAS  C:\Users\tmj32\AppData\Local\Temp\ccnErvJB.s 			page 1


   1              		.syntax unified
   2              		.cpu cortex-m3
   3              		.fpu softvfp
   4              		.eabi_attribute 20, 1
   5              		.eabi_attribute 21, 1
   6              		.eabi_attribute 23, 3
   7              		.eabi_attribute 24, 1
   8              		.eabi_attribute 25, 1
   9              		.eabi_attribute 26, 1
  10              		.eabi_attribute 30, 1
  11              		.eabi_attribute 34, 1
  12              		.eabi_attribute 18, 4
  13              		.thumb
  14              		.syntax unified
  15              		.file	"main.c"
  16              		.text
  17              	.Ltext0:
  18              		.cfi_sections	.debug_frame
  19              		.section	.text.main,"ax",%progbits
  20              		.align	2
  21              		.global	main
  22              		.thumb
  23              		.thumb_func
  24              		.type	main, %function
  25              	main:
  26              	.LFB64:
  27              		.file 1 "main.c"
   1:main.c        **** #include "project.h"
   2:main.c        **** #include "stdio.h"
   3:main.c        **** 
   4:main.c        **** int main(void)
   5:main.c        **** {
  28              		.loc 1 5 0
  29              		.cfi_startproc
  30              		@ args = 0, pretend = 0, frame = 16
  31              		@ frame_needed = 0, uses_anonymous_args = 0
  32 0000 30B5     		push	{r4, r5, lr}
  33              		.cfi_def_cfa_offset 12
  34              		.cfi_offset 4, -12
  35              		.cfi_offset 5, -8
  36              		.cfi_offset 14, -4
  37 0002 85B0     		sub	sp, sp, #20
  38              		.cfi_def_cfa_offset 32
   6:main.c        ****     PWM_1_Start(); // Configure and enable timer
  39              		.loc 1 6 0
  40 0004 FFF7FEFF 		bl	PWM_1_Start
  41              	.LVL0:
   7:main.c        ****     Clock_1_Start();
  42              		.loc 1 7 0
  43 0008 FFF7FEFF 		bl	Clock_1_Start
  44              	.LVL1:
   8:main.c        ****     CyGlobalIntEnable; /* Enable global interrupts. */
  45              		.loc 1 8 0
  46              		.syntax unified
  47              	@ 8 "main.c" 1
  48 000c 62B6     		CPSIE   i
  49              	@ 0 "" 2
ARM GAS  C:\Users\tmj32\AppData\Local\Temp\ccnErvJB.s 			page 2


   9:main.c        ****     LCD_Start();
  50              		.loc 1 9 0
  51              		.thumb
  52              		.syntax unified
  53 000e FFF7FEFF 		bl	LCD_Start
  54              	.LVL2:
  10:main.c        ****     Driver_Start();     //the tens place of minutes
  55              		.loc 1 10 0
  56 0012 FFF7FEFF 		bl	Driver_Start
  57              	.LVL3:
  11:main.c        ****     Driver1_Start();    //the ones place of minutes
  58              		.loc 1 11 0
  59 0016 FFF7FEFF 		bl	Driver1_Start
  60              	.LVL4:
  12:main.c        ****     LCD_Position(0,0);
  61              		.loc 1 12 0
  62 001a 0021     		movs	r1, #0
  63 001c 0846     		mov	r0, r1
  64 001e FFF7FEFF 		bl	LCD_Position
  65              	.LVL5:
  13:main.c        ****     LCD_PrintString("Welcome!");
  66              		.loc 1 13 0
  67 0022 4848     		ldr	r0, .L11
  68 0024 FFF7FEFF 		bl	LCD_PrintString
  69              	.LVL6:
  14:main.c        ****     CyDelay(1000);
  70              		.loc 1 14 0
  71 0028 4FF47A70 		mov	r0, #1000
  72 002c FFF7FEFF 		bl	CyDelay
  73              	.LVL7:
  15:main.c        ****     
  16:main.c        ****     int seconds = 0;
  17:main.c        ****     char str1[15];
  18:main.c        ****     
  19:main.c        ****     LCD_ClearDisplay();
  74              		.loc 1 19 0
  75 0030 0120     		movs	r0, #1
  76 0032 FFF7FEFF 		bl	LCD_WriteControl
  77              	.LVL8:
  20:main.c        ****     LCD_Position(0,0);
  78              		.loc 1 20 0
  79 0036 0021     		movs	r1, #0
  80 0038 0846     		mov	r0, r1
  81 003a FFF7FEFF 		bl	LCD_Position
  82              	.LVL9:
  21:main.c        ****     sprintf(str1, "%d", seconds);
  83              		.loc 1 21 0
  84 003e 0022     		movs	r2, #0
  85 0040 4149     		ldr	r1, .L11+4
  86 0042 6846     		mov	r0, sp
  87 0044 FFF7FEFF 		bl	sprintf
  88              	.LVL10:
  22:main.c        ****     LCD_PrintString(str1);
  89              		.loc 1 22 0
  90 0048 6846     		mov	r0, sp
  91 004a FFF7FEFF 		bl	LCD_PrintString
  92              	.LVL11:
ARM GAS  C:\Users\tmj32\AppData\Local\Temp\ccnErvJB.s 			page 3


  23:main.c        ****     
  24:main.c        ****     //setting the inital display to show all zeros
  25:main.c        ****     Driver_Write7SegDigitDec(0, 0);
  93              		.loc 1 25 0
  94 004e 0021     		movs	r1, #0
  95 0050 0846     		mov	r0, r1
  96 0052 FFF7FEFF 		bl	Driver_Write7SegDigitDec
  97              	.LVL12:
  26:main.c        ****     Driver1_Write7SegDigitDec(0, 0);
  98              		.loc 1 26 0
  99 0056 0021     		movs	r1, #0
 100 0058 0846     		mov	r0, r1
 101 005a FFF7FEFF 		bl	Driver1_Write7SegDigitDec
 102              	.LVL13:
  16:main.c        ****     char str1[15];
 103              		.loc 1 16 0
 104 005e 0025     		movs	r5, #0
 105              	.LVL14:
 106              	.L2:
  27:main.c        **** 
  28:main.c        ****     for(;;)
  29:main.c        ****     {
  30:main.c        ****         //increment seconds by 1 when button two is pressed
  31:main.c        ****         if (SW_Read() == 0)
 107              		.loc 1 31 0
 108 0060 FFF7FEFF 		bl	SW_Read
 109              	.LVL15:
 110 0064 70BB     		cbnz	r0, .L3
  32:main.c        ****         {
  33:main.c        ****             LCD_ClearDisplay();
 111              		.loc 1 33 0
 112 0066 0120     		movs	r0, #1
 113 0068 FFF7FEFF 		bl	LCD_WriteControl
 114              	.LVL16:
  34:main.c        ****             LCD_Position(0,0);
 115              		.loc 1 34 0
 116 006c 0021     		movs	r1, #0
 117 006e 0846     		mov	r0, r1
 118 0070 FFF7FEFF 		bl	LCD_Position
 119              	.LVL17:
  35:main.c        **** 
  36:main.c        ****             if (seconds < 59)
 120              		.loc 1 36 0
 121 0074 3A2D     		cmp	r5, #58
 122 0076 25DC     		bgt	.L3
  37:main.c        ****             {
  38:main.c        ****                 seconds = seconds + 1;
 123              		.loc 1 38 0
 124 0078 0135     		adds	r5, r5, #1
 125              	.LVL18:
  39:main.c        ****                 sprintf(str1, "%d", seconds);
 126              		.loc 1 39 0
 127 007a 2A46     		mov	r2, r5
 128 007c 3249     		ldr	r1, .L11+4
 129 007e 6846     		mov	r0, sp
 130 0080 FFF7FEFF 		bl	sprintf
 131              	.LVL19:
ARM GAS  C:\Users\tmj32\AppData\Local\Temp\ccnErvJB.s 			page 4


  40:main.c        ****                 LCD_PrintString(str1);
 132              		.loc 1 40 0
 133 0084 6846     		mov	r0, sp
 134 0086 FFF7FEFF 		bl	LCD_PrintString
 135              	.LVL20:
  41:main.c        ****                 
  42:main.c        ****                 if (seconds < 10)
 136              		.loc 1 42 0
 137 008a 092D     		cmp	r5, #9
 138 008c 08DC     		bgt	.L4
  43:main.c        ****                 {
  44:main.c        ****                     Driver_Write7SegDigitDec(0, 0);
 139              		.loc 1 44 0
 140 008e 0021     		movs	r1, #0
 141 0090 0846     		mov	r0, r1
 142 0092 FFF7FEFF 		bl	Driver_Write7SegDigitDec
 143              	.LVL21:
  45:main.c        ****                     Driver1_Write7SegDigitDec(seconds, 0);
 144              		.loc 1 45 0
 145 0096 0021     		movs	r1, #0
 146 0098 E8B2     		uxtb	r0, r5
 147 009a FFF7FEFF 		bl	Driver1_Write7SegDigitDec
 148              	.LVL22:
 149 009e 11E0     		b	.L3
 150              	.L4:
  46:main.c        ****                 }
  47:main.c        ****                 else //when double digits
  48:main.c        ****                 {            
  49:main.c        ****                     Driver_Write7SegDigitDec((seconds / 10), 0); //shift out the ones place to be l
 151              		.loc 1 49 0
 152 00a0 2A4C     		ldr	r4, .L11+8
 153 00a2 84FB0534 		smull	r3, r4, r4, r5
 154 00a6 EB17     		asrs	r3, r5, #31
 155 00a8 C3EBA404 		rsb	r4, r3, r4, asr #2
 156 00ac 0021     		movs	r1, #0
 157 00ae E0B2     		uxtb	r0, r4
 158 00b0 FFF7FEFF 		bl	Driver_Write7SegDigitDec
 159              	.LVL23:
  50:main.c        ****                     Driver1_Write7SegDigitDec((seconds % 10), 0); //modulo by 10 to be left with th
 160              		.loc 1 50 0
 161 00b4 04EB8404 		add	r4, r4, r4, lsl #2
 162 00b8 6000     		lsls	r0, r4, #1
 163 00ba 281A     		subs	r0, r5, r0
 164 00bc 0021     		movs	r1, #0
 165 00be C0B2     		uxtb	r0, r0
 166 00c0 FFF7FEFF 		bl	Driver1_Write7SegDigitDec
 167              	.LVL24:
 168              	.L3:
  51:main.c        ****                 }      
  52:main.c        ****             }
  53:main.c        ****         }
  54:main.c        ****         CyDelay(500);
 169              		.loc 1 54 0
 170 00c4 4FF4FA70 		mov	r0, #500
 171 00c8 FFF7FEFF 		bl	CyDelay
 172              	.LVL25:
  55:main.c        ****         
ARM GAS  C:\Users\tmj32\AppData\Local\Temp\ccnErvJB.s 			page 5


  56:main.c        ****         //this is the count down section of the code
  57:main.c        ****         if ((SW_Read() != 0) && (seconds > 0))
 173              		.loc 1 57 0
 174 00cc FFF7FEFF 		bl	SW_Read
 175              	.LVL26:
 176 00d0 0028     		cmp	r0, #0
 177 00d2 C5D0     		beq	.L2
 178              		.loc 1 57 0 is_stmt 0 discriminator 1
 179 00d4 002D     		cmp	r5, #0
 180 00d6 C3DD     		ble	.L2
  58:main.c        ****         {
  59:main.c        ****             isr_1_Start();
 181              		.loc 1 59 0 is_stmt 1
 182 00d8 FFF7FEFF 		bl	isr_1_Start
 183              	.LVL27:
  60:main.c        ****             
  61:main.c        ****             //this decrements the minutes every 60 seconds
  62:main.c        ****             while (seconds > 0)
 184              		.loc 1 62 0
 185 00dc 2CE0     		b	.L6
 186              	.L9:
  63:main.c        ****             {
  64:main.c        ****                 //begin countdown
  65:main.c        ****                 CyDelay(1000);
 187              		.loc 1 65 0
 188 00de 4FF47A70 		mov	r0, #1000
 189 00e2 FFF7FEFF 		bl	CyDelay
 190              	.LVL28:
  66:main.c        ****                 
  67:main.c        ****                 seconds = seconds - 1;
 191              		.loc 1 67 0
 192 00e6 013D     		subs	r5, r5, #1
 193              	.LVL29:
  68:main.c        ****                 LCD_ClearDisplay();
 194              		.loc 1 68 0
 195 00e8 0120     		movs	r0, #1
 196 00ea FFF7FEFF 		bl	LCD_WriteControl
 197              	.LVL30:
  69:main.c        ****                 sprintf(str1, "%d", seconds);
 198              		.loc 1 69 0
 199 00ee 2A46     		mov	r2, r5
 200 00f0 1549     		ldr	r1, .L11+4
 201 00f2 6846     		mov	r0, sp
 202 00f4 FFF7FEFF 		bl	sprintf
 203              	.LVL31:
  70:main.c        ****                 LCD_PrintString(str1);
 204              		.loc 1 70 0
 205 00f8 6846     		mov	r0, sp
 206 00fa FFF7FEFF 		bl	LCD_PrintString
 207              	.LVL32:
  71:main.c        ****                 
  72:main.c        ****                 if (seconds < 10)
 208              		.loc 1 72 0
 209 00fe 092D     		cmp	r5, #9
 210 0100 08DC     		bgt	.L7
  73:main.c        ****                 {
  74:main.c        ****                     Driver_Write7SegDigitDec(0, 0);
ARM GAS  C:\Users\tmj32\AppData\Local\Temp\ccnErvJB.s 			page 6


 211              		.loc 1 74 0
 212 0102 0021     		movs	r1, #0
 213 0104 0846     		mov	r0, r1
 214 0106 FFF7FEFF 		bl	Driver_Write7SegDigitDec
 215              	.LVL33:
  75:main.c        ****                     Driver1_Write7SegDigitDec(seconds, 0);
 216              		.loc 1 75 0
 217 010a 0021     		movs	r1, #0
 218 010c E8B2     		uxtb	r0, r5
 219 010e FFF7FEFF 		bl	Driver1_Write7SegDigitDec
 220              	.LVL34:
 221 0112 11E0     		b	.L6
 222              	.L7:
  76:main.c        ****                 }
  77:main.c        ****                 else //when double digits
  78:main.c        ****                 {            
  79:main.c        ****                     Driver_Write7SegDigitDec((seconds / 10), 0); //shift out the ones place to be l
 223              		.loc 1 79 0
 224 0114 0D4C     		ldr	r4, .L11+8
 225 0116 84FB0534 		smull	r3, r4, r4, r5
 226 011a EB17     		asrs	r3, r5, #31
 227 011c C3EBA404 		rsb	r4, r3, r4, asr #2
 228 0120 0021     		movs	r1, #0
 229 0122 E0B2     		uxtb	r0, r4
 230 0124 FFF7FEFF 		bl	Driver_Write7SegDigitDec
 231              	.LVL35:
  80:main.c        ****                     Driver1_Write7SegDigitDec((seconds % 10), 0); //modulo by 10 to be left with th
 232              		.loc 1 80 0
 233 0128 04EB8404 		add	r4, r4, r4, lsl #2
 234 012c 6000     		lsls	r0, r4, #1
 235 012e 281A     		subs	r0, r5, r0
 236 0130 0021     		movs	r1, #0
 237 0132 C0B2     		uxtb	r0, r0
 238 0134 FFF7FEFF 		bl	Driver1_Write7SegDigitDec
 239              	.LVL36:
 240              	.L6:
  62:main.c        ****             {
 241              		.loc 1 62 0
 242 0138 002D     		cmp	r5, #0
 243 013a D0DC     		bgt	.L9
  81:main.c        ****                 }  
  82:main.c        ****             }
  83:main.c        ****             isr_2_Start();
 244              		.loc 1 83 0
 245 013c FFF7FEFF 		bl	isr_2_Start
 246              	.LVL37:
 247 0140 8EE7     		b	.L2
 248              	.L12:
 249 0142 00BF     		.align	2
 250              	.L11:
 251 0144 00000000 		.word	.LC0
 252 0148 0C000000 		.word	.LC1
 253 014c 67666666 		.word	1717986919
 254              		.cfi_endproc
 255              	.LFE64:
 256              		.size	main, .-main
 257              		.section	.rodata.str1.4,"aMS",%progbits,1
ARM GAS  C:\Users\tmj32\AppData\Local\Temp\ccnErvJB.s 			page 7


 258              		.align	2
 259              	.LC0:
 260 0000 57656C63 		.ascii	"Welcome!\000"
 260      6F6D6521 
 260      00
 261 0009 000000   		.space	3
 262              	.LC1:
 263 000c 256400   		.ascii	"%d\000"
 264              		.text
 265              	.Letext0:
 266              		.file 2 "c:\\program files (x86)\\cypress\\psoc creator\\4.2\\psoc creator\\import\\gnu\\arm\\5.4.
 267              		.file 3 "c:\\program files (x86)\\cypress\\psoc creator\\4.2\\psoc creator\\import\\gnu\\arm\\5.4.
 268              		.file 4 "Generated_Source\\PSoC5/PWM_1.h"
 269              		.file 5 "Generated_Source\\PSoC5/Clock_1.h"
 270              		.file 6 "Generated_Source\\PSoC5/LCD.h"
 271              		.file 7 "Generated_Source\\PSoC5/Driver.h"
 272              		.file 8 "Generated_Source\\PSoC5/Driver1.h"
 273              		.file 9 "Generated_Source\\PSoC5/CyLib.h"
 274              		.file 10 "c:\\program files (x86)\\cypress\\psoc creator\\4.2\\psoc creator\\import\\gnu\\arm\\5.4
 275              		.file 11 "Generated_Source\\PSoC5/SW.h"
 276              		.file 12 "Generated_Source\\PSoC5/isr_1.h"
 277              		.file 13 "Generated_Source\\PSoC5/isr_2.h"
 278              		.file 14 "Generated_Source\\PSoC5/core_cm3.h"